TN:
SF:/home/marco/Documents/Dev/TrabajoFinal/Software/.pio/libdeps/native/googletest/googlemock/include/gmock/gmock-actions.h
FN:1257,1259,_ZNK7testing8internal15DoDefaultActioncvNS_6ActionIT_EEIFiiPKiiEEEv
FN:1844,1846,_ZN7testing6ReturnIiEENS_8internal12ReturnActionIT_EES3_
FN:1905,1907,_ZN7testing9DoDefaultEv
FN:255,255,_ZN7testing8internal19BuiltInDefaultValueIiE3GetEv
FN:255,255,_ZN7testing8internal19BuiltInDefaultValueIiE6ExistsEv
FN:458,460,_ZN7testing10OnceActionIFiiPKiiEEC2INS4_23IgnoreIncomingArgumentsINS_8internal12ReturnActionIiE4ImplIiEEEELi0EEEOT_
FN:477,481,_ZN7testing10OnceActionIFiiPKiiEEC2INS_8internal12ReturnActionIiE4ImplIiEELi0EEEOT_
FN:487,487,_ZN7testing10OnceActionIFiiPKiiEEC2EOS4_
FN:491,493,_ZNO7testing10OnceActionIFiiPKiiEE4CallEiS2_i
FN:512,513,_ZN7testing10OnceActionIFiiPKiiEE18StdFunctionAdaptorINS4_23IgnoreIncomingArgumentsINS_8internal12ReturnActionIiE4ImplIiEEEEEC2ISC_EENSD_11CallableTagEOT_
FN:534,537,_ZNK7testing10OnceActionIFiiPKiiEE18StdFunctionAdaptorINS4_23IgnoreIncomingArgumentsINS_8internal12ReturnActionIiE4ImplIiEEEEEclIJiS2_iEEEDTclclL_ZSt7declvalISC_EDTcl9__declvalIT_ELi0EEEvEEspcl7declvalIT_EEEEDpOSI_
FN:549,551,_ZN7testing10OnceActionIFiiPKiiEE23IgnoreIncomingArgumentsINS_8internal12ReturnActionIiE4ImplIiEEEclEOiOS2_SC_
FN:598,598,_ZN7testing12DefaultValueIiE5IsSetEv
FN:602,604,_ZN7testing12DefaultValueIiE6ExistsEv
FN:609,612,_ZN7testing12DefaultValueIiE3GetEv
FN:755,755,_ZN7testing6ActionIFiiPKiiEEC2Ev
FN:765,767,_ZN7testing6ActionIFiiPKiiEEC2INS_8internal16TypedExpectationIS3_E13ActionAdaptorEvEEOT_
FN:781,781,_ZNK7testing6ActionIFiiP17spi_transaction_tEE11IsDoDefaultEv
FN:781,781,_ZNK7testing6ActionIFiiPKiPiEE11IsDoDefaultEv
FN:781,781,_ZNK7testing6ActionIFiiPKiiEE11IsDoDefaultEv
FN:789,794,_ZNK7testing6ActionIFiiP17spi_transaction_tEE7PerformESt5tupleIJiS2_EE
FN:789,794,_ZNK7testing6ActionIFiiPKiPiEE7PerformESt5tupleIJiS2_S3_EE
FN:789,794,_ZNK7testing6ActionIFiiPKiiEE7PerformESt5tupleIJiS2_iEE
FN:819,821,_ZN7testing6ActionIFiiPKiiEE4InitINS_8internal16TypedExpectationIS3_E13ActionAdaptorEEEvOT_St17integral_constantIbLb1EE
FN:926,926,_ZN7testing8internal12ReturnActionIiEC2Ei
FN:935,937,_ZNO7testing8internal12ReturnActionIiEcvNS_10OnceActionIFT_DpT0_EEEIiJiPKiiEvEEv
FN:957,958,_ZN7testing8internal12ReturnActionIiE4ImplIiEC2EOi
FN:964,964,_ZNO7testing8internal12ReturnActionIiE4ImplIiEclEv
FN:994,1002,_ZN7testing8internal12ReturnActionIiE4ImplIiE5StateC2EOi
FNDA:1,_ZNK7testing8internal15DoDefaultActioncvNS_6ActionIT_EEIFiiPKiiEEEv
FNDA:1,_ZN7testing6ReturnIiEENS_8internal12ReturnActionIT_EES3_
FNDA:1,_ZN7testing9DoDefaultEv
FNDA:0,_ZN7testing8internal19BuiltInDefaultValueIiE3GetEv
FNDA:0,_ZN7testing8internal19BuiltInDefaultValueIiE6ExistsEv
FNDA:1,_ZN7testing10OnceActionIFiiPKiiEEC2INS4_23IgnoreIncomingArgumentsINS_8internal12ReturnActionIiE4ImplIiEEEELi0EEEOT_
FNDA:1,_ZN7testing10OnceActionIFiiPKiiEEC2INS_8internal12ReturnActionIiE4ImplIiEELi0EEEOT_
FNDA:1,_ZN7testing10OnceActionIFiiPKiiEEC2EOS4_
FNDA:1,_ZNO7testing10OnceActionIFiiPKiiEE4CallEiS2_i
FNDA:1,_ZN7testing10OnceActionIFiiPKiiEE18StdFunctionAdaptorINS4_23IgnoreIncomingArgumentsINS_8internal12ReturnActionIiE4ImplIiEEEEEC2ISC_EENSD_11CallableTagEOT_
FNDA:1,_ZNK7testing10OnceActionIFiiPKiiEE18StdFunctionAdaptorINS4_23IgnoreIncomingArgumentsINS_8internal12ReturnActionIiE4ImplIiEEEEEclIJiS2_iEEEDTclclL_ZSt7declvalISC_EDTcl9__declvalIT_ELi0EEEvEEspcl7declvalIT_EEEEDpOSI_
FNDA:1,_ZN7testing10OnceActionIFiiPKiiEE23IgnoreIncomingArgumentsINS_8internal12ReturnActionIiE4ImplIiEEEclEOiOS2_SC_
FNDA:0,_ZN7testing12DefaultValueIiE5IsSetEv
FNDA:0,_ZN7testing12DefaultValueIiE6ExistsEv
FNDA:0,_ZN7testing12DefaultValueIiE3GetEv
FNDA:1,_ZN7testing6ActionIFiiPKiiEEC2Ev
FNDA:1,_ZN7testing6ActionIFiiPKiiEEC2INS_8internal16TypedExpectationIS3_E13ActionAdaptorEvEEOT_
FNDA:0,_ZNK7testing6ActionIFiiP17spi_transaction_tEE11IsDoDefaultEv
FNDA:0,_ZNK7testing6ActionIFiiPKiPiEE11IsDoDefaultEv
FNDA:2,_ZNK7testing6ActionIFiiPKiiEE11IsDoDefaultEv
FNDA:0,_ZNK7testing6ActionIFiiP17spi_transaction_tEE7PerformESt5tupleIJiS2_EE
FNDA:0,_ZNK7testing6ActionIFiiPKiPiEE7PerformESt5tupleIJiS2_S3_EE
FNDA:1,_ZNK7testing6ActionIFiiPKiiEE7PerformESt5tupleIJiS2_iEE
FNDA:1,_ZN7testing6ActionIFiiPKiiEE4InitINS_8internal16TypedExpectationIS3_E13ActionAdaptorEEEvOT_St17integral_constantIbLb1EE
FNDA:1,_ZN7testing8internal12ReturnActionIiEC2Ei
FNDA:1,_ZNO7testing8internal12ReturnActionIiEcvNS_10OnceActionIFT_DpT0_EEEIiJiPKiiEvEEv
FNDA:1,_ZN7testing8internal12ReturnActionIiE4ImplIiEC2EOi
FNDA:1,_ZNO7testing8internal12ReturnActionIiE4ImplIiEclEv
FNDA:1,_ZN7testing8internal12ReturnActionIiE4ImplIiE5StateC2EOi
FNF:29
FNH:20
DA:255,0
DA:458,1
DA:459,1
DA:460,1
DA:477,1
DA:481,1
DA:487,1
DA:491,1
DA:492,1
DA:512,1
DA:513,1
DA:534,1
DA:536,1
DA:549,1
DA:550,1
DA:598,0
DA:602,0
DA:603,0
DA:609,0
DA:610,0
DA:611,0
DA:755,1
DA:765,1
DA:766,1
DA:767,1
DA:781,2
DA:789,1
DA:790,1
DA:791,0
DA:793,1
DA:819,1
DA:820,1
DA:821,1
DA:926,1
DA:935,1
DA:936,1
DA:957,1
DA:958,1
DA:964,1
DA:994,1
DA:995,1
DA:1002,1
DA:1257,1
DA:1258,1
DA:1844,1
DA:1845,1
DA:1905,1
DA:1906,1
LF:48
LH:40
end_of_record
TN:
SF:/home/marco/Documents/Dev/TrabajoFinal/Software/.pio/libdeps/native/googletest/googlemock/include/gmock/gmock-cardinalities.h
FN:113,115,_ZNK7testing11Cardinality22IsSaturatedByCallCountEi
FNDA:2,_ZNK7testing11Cardinality22IsSaturatedByCallCountEi
FNF:1
FNH:1
DA:113,2
DA:114,2
LF:2
LH:2
end_of_record
TN:
SF:/home/marco/Documents/Dev/TrabajoFinal/Software/.pio/libdeps/native/googletest/googlemock/include/gmock/gmock-matchers.h
FN:305,305,_ZN7testing25StringMatchResultListenerC2Ev
FN:308,308,_ZNK7testing25StringMatchResultListener3strB5cxx11Ev
FN:4234,4236,_ZN7testing1AIRKSt5tupleIJiPKiiEEEENS_7MatcherIT_EEv
FN:562,567,_ZN7testing8internal15PrintIfNotEmptyERKNSt7__cxx1112basic_stringIcSt11char_traitsIcESaIcEEEPSo
FN:616,620,_ZN7testing8internal11TuplePrefixILm1EE7MatchesISt5tupleIJNS_7MatcherIiEENS5_IP17spi_transaction_tEEEES4_IJiS8_EEEEbRKT_RKT0_
FN:616,620,_ZN7testing8internal11TuplePrefixILm1EE7MatchesISt5tupleIJNS_7MatcherIiEENS5_IPKiEENS5_IPiEEEES4_IJiS8_SA_EEEEbRKT_RKT0_
FN:616,620,_ZN7testing8internal11TuplePrefixILm1EE7MatchesISt5tupleIJNS_7MatcherIiEENS5_IPKiEES6_EES4_IJiS8_iEEEEbRKT_RKT0_
FN:616,620,_ZN7testing8internal11TuplePrefixILm2EE7MatchesISt5tupleIJNS_7MatcherIiEENS5_IP17spi_transaction_tEEEES4_IJiS8_EEEEbRKT_RKT0_
FN:616,620,_ZN7testing8internal11TuplePrefixILm2EE7MatchesISt5tupleIJNS_7MatcherIiEENS5_IPKiEENS5_IPiEEEES4_IJiS8_SA_EEEEbRKT_RKT0_
FN:616,620,_ZN7testing8internal11TuplePrefixILm2EE7MatchesISt5tupleIJNS_7MatcherIiEENS5_IPKiEES6_EES4_IJiS8_iEEEEbRKT_RKT0_
FN:616,620,_ZN7testing8internal11TuplePrefixILm3EE7MatchesISt5tupleIJNS_7MatcherIiEENS5_IPKiEENS5_IPiEEEES4_IJiS8_SA_EEEEbRKT_RKT0_
FN:616,620,_ZN7testing8internal11TuplePrefixILm3EE7MatchesISt5tupleIJNS_7MatcherIiEENS5_IPKiEES6_EES4_IJiS8_iEEEEbRKT_RKT0_
FN:627,653,_ZN7testing8internal11TuplePrefixILm1EE22ExplainMatchFailuresToISt5tupleIJNS_7MatcherIiEENS5_IP17spi_transaction_tEEEES4_IJiS8_EEEEvRKT_RKT0_PSo
FN:627,653,_ZN7testing8internal11TuplePrefixILm1EE22ExplainMatchFailuresToISt5tupleIJNS_7MatcherIiEENS5_IPKiEENS5_IPiEEEES4_IJiS8_SA_EEEEvRKT_RKT0_PSo
FN:627,653,_ZN7testing8internal11TuplePrefixILm1EE22ExplainMatchFailuresToISt5tupleIJNS_7MatcherIiEENS5_IPKiEES6_EES4_IJiS8_iEEEEvRKT_RKT0_PSo
FN:627,653,_ZN7testing8internal11TuplePrefixILm2EE22ExplainMatchFailuresToISt5tupleIJNS_7MatcherIiEENS5_IP17spi_transaction_tEEEES4_IJiS8_EEEEvRKT_RKT0_PSo
FN:627,653,_ZN7testing8internal11TuplePrefixILm2EE22ExplainMatchFailuresToISt5tupleIJNS_7MatcherIiEENS5_IPKiEENS5_IPiEEEES4_IJiS8_SA_EEEEvRKT_RKT0_PSo
FN:627,653,_ZN7testing8internal11TuplePrefixILm2EE22ExplainMatchFailuresToISt5tupleIJNS_7MatcherIiEENS5_IPKiEES6_EES4_IJiS8_iEEEEvRKT_RKT0_PSo
FN:627,653,_ZN7testing8internal11TuplePrefixILm3EE22ExplainMatchFailuresToISt5tupleIJNS_7MatcherIiEENS5_IPKiEENS5_IPiEEEES4_IJiS8_SA_EEEEvRKT_RKT0_PSo
FN:627,653,_ZN7testing8internal11TuplePrefixILm3EE22ExplainMatchFailuresToISt5tupleIJNS_7MatcherIiEENS5_IPKiEES6_EES4_IJiS8_iEEEEvRKT_RKT0_PSo
FN:661,664,_ZN7testing8internal11TuplePrefixILm0EE7MatchesISt5tupleIJNS_7MatcherIiEENS5_IP17spi_transaction_tEEEES4_IJiS8_EEEEbRKT_RKT0_
FN:661,664,_ZN7testing8internal11TuplePrefixILm0EE7MatchesISt5tupleIJNS_7MatcherIiEENS5_IPKiEENS5_IPiEEEES4_IJiS8_SA_EEEEbRKT_RKT0_
FN:661,664,_ZN7testing8internal11TuplePrefixILm0EE7MatchesISt5tupleIJNS_7MatcherIiEENS5_IPKiEES6_EES4_IJiS8_iEEEEbRKT_RKT0_
FN:667,669,_ZN7testing8internal11TuplePrefixILm0EE22ExplainMatchFailuresToISt5tupleIJNS_7MatcherIiEENS5_IP17spi_transaction_tEEEES4_IJiS8_EEEEvRKT_RKT0_PSo
FN:667,669,_ZN7testing8internal11TuplePrefixILm0EE22ExplainMatchFailuresToISt5tupleIJNS_7MatcherIiEENS5_IPKiEENS5_IPiEEEES4_IJiS8_SA_EEEEvRKT_RKT0_PSo
FN:667,669,_ZN7testing8internal11TuplePrefixILm0EE22ExplainMatchFailuresToISt5tupleIJNS_7MatcherIiEENS5_IPKiEES6_EES4_IJiS8_iEEEEvRKT_RKT0_PSo
FN:678,687,_ZN7testing8internal12TupleMatchesISt5tupleIJNS_7MatcherIiEENS3_IP17spi_transaction_tEEEES2_IJiS6_EEEEbRKT_RKT0_
FN:678,687,_ZN7testing8internal12TupleMatchesISt5tupleIJNS_7MatcherIiEENS3_IPKiEENS3_IPiEEEES2_IJiS6_S8_EEEEbRKT_RKT0_
FN:678,687,_ZN7testing8internal12TupleMatchesISt5tupleIJNS_7MatcherIiEENS3_IPKiEES4_EES2_IJiS6_iEEEEbRKT_RKT0_
FN:692,696,_ZN7testing8internal26ExplainMatchFailureTupleToISt5tupleIJNS_7MatcherIiEENS3_IP17spi_transaction_tEEEES2_IJiS6_EEEEvRKT_RKT0_PSo
FN:692,696,_ZN7testing8internal26ExplainMatchFailureTupleToISt5tupleIJNS_7MatcherIiEENS3_IPKiEENS3_IPiEEEES2_IJiS6_S8_EEEEvRKT_RKT0_PSo
FN:692,696,_ZN7testing8internal26ExplainMatchFailureTupleToISt5tupleIJNS_7MatcherIiEENS3_IPKiEES4_EES2_IJiS6_iEEEEvRKT_RKT0_PSo
FN:747,749,_ZNK7testing8internal15AnythingMatcher15MatchAndExplainIPKiEEbRKT_PSo
FN:747,749,_ZNK7testing8internal15AnythingMatcher15MatchAndExplainISt5tupleIJiPKiiEEEEbRKT_PSo
FN:750,750,_ZNK7testing8internal15AnythingMatcher10DescribeToEPSo
FN:751,756,_ZNK7testing8internal15AnythingMatcher18DescribeNegationToEPSo
FNDA:0,_ZN7testing25StringMatchResultListenerC2Ev
FNDA:0,_ZNK7testing25StringMatchResultListener3strB5cxx11Ev
FNDA:1,_ZN7testing1AIRKSt5tupleIJiPKiiEEEENS_7MatcherIT_EEv
FNDA:0,_ZN7testing8internal15PrintIfNotEmptyERKNSt7__cxx1112basic_stringIcSt11char_traitsIcESaIcEEEPSo
FNDA:0,_ZN7testing8internal11TuplePrefixILm1EE7MatchesISt5tupleIJNS_7MatcherIiEENS5_IP17spi_transaction_tEEEES4_IJiS8_EEEEbRKT_RKT0_
FNDA:0,_ZN7testing8internal11TuplePrefixILm1EE7MatchesISt5tupleIJNS_7MatcherIiEENS5_IPKiEENS5_IPiEEEES4_IJiS8_SA_EEEEbRKT_RKT0_
FNDA:1,_ZN7testing8internal11TuplePrefixILm1EE7MatchesISt5tupleIJNS_7MatcherIiEENS5_IPKiEES6_EES4_IJiS8_iEEEEbRKT_RKT0_
FNDA:0,_ZN7testing8internal11TuplePrefixILm2EE7MatchesISt5tupleIJNS_7MatcherIiEENS5_IP17spi_transaction_tEEEES4_IJiS8_EEEEbRKT_RKT0_
FNDA:0,_ZN7testing8internal11TuplePrefixILm2EE7MatchesISt5tupleIJNS_7MatcherIiEENS5_IPKiEENS5_IPiEEEES4_IJiS8_SA_EEEEbRKT_RKT0_
FNDA:1,_ZN7testing8internal11TuplePrefixILm2EE7MatchesISt5tupleIJNS_7MatcherIiEENS5_IPKiEES6_EES4_IJiS8_iEEEEbRKT_RKT0_
FNDA:0,_ZN7testing8internal11TuplePrefixILm3EE7MatchesISt5tupleIJNS_7MatcherIiEENS5_IPKiEENS5_IPiEEEES4_IJiS8_SA_EEEEbRKT_RKT0_
FNDA:1,_ZN7testing8internal11TuplePrefixILm3EE7MatchesISt5tupleIJNS_7MatcherIiEENS5_IPKiEES6_EES4_IJiS8_iEEEEbRKT_RKT0_
FNDA:0,_ZN7testing8internal11TuplePrefixILm1EE22ExplainMatchFailuresToISt5tupleIJNS_7MatcherIiEENS5_IP17spi_transaction_tEEEES4_IJiS8_EEEEvRKT_RKT0_PSo
FNDA:0,_ZN7testing8internal11TuplePrefixILm1EE22ExplainMatchFailuresToISt5tupleIJNS_7MatcherIiEENS5_IPKiEENS5_IPiEEEES4_IJiS8_SA_EEEEvRKT_RKT0_PSo
FNDA:0,_ZN7testing8internal11TuplePrefixILm1EE22ExplainMatchFailuresToISt5tupleIJNS_7MatcherIiEENS5_IPKiEES6_EES4_IJiS8_iEEEEvRKT_RKT0_PSo
FNDA:0,_ZN7testing8internal11TuplePrefixILm2EE22ExplainMatchFailuresToISt5tupleIJNS_7MatcherIiEENS5_IP17spi_transaction_tEEEES4_IJiS8_EEEEvRKT_RKT0_PSo
FNDA:0,_ZN7testing8internal11TuplePrefixILm2EE22ExplainMatchFailuresToISt5tupleIJNS_7MatcherIiEENS5_IPKiEENS5_IPiEEEES4_IJiS8_SA_EEEEvRKT_RKT0_PSo
FNDA:0,_ZN7testing8internal11TuplePrefixILm2EE22ExplainMatchFailuresToISt5tupleIJNS_7MatcherIiEENS5_IPKiEES6_EES4_IJiS8_iEEEEvRKT_RKT0_PSo
FNDA:0,_ZN7testing8internal11TuplePrefixILm3EE22ExplainMatchFailuresToISt5tupleIJNS_7MatcherIiEENS5_IPKiEENS5_IPiEEEES4_IJiS8_SA_EEEEvRKT_RKT0_PSo
FNDA:0,_ZN7testing8internal11TuplePrefixILm3EE22ExplainMatchFailuresToISt5tupleIJNS_7MatcherIiEENS5_IPKiEES6_EES4_IJiS8_iEEEEvRKT_RKT0_PSo
FNDA:0,_ZN7testing8internal11TuplePrefixILm0EE7MatchesISt5tupleIJNS_7MatcherIiEENS5_IP17spi_transaction_tEEEES4_IJiS8_EEEEbRKT_RKT0_
FNDA:0,_ZN7testing8internal11TuplePrefixILm0EE7MatchesISt5tupleIJNS_7MatcherIiEENS5_IPKiEENS5_IPiEEEES4_IJiS8_SA_EEEEbRKT_RKT0_
FNDA:1,_ZN7testing8internal11TuplePrefixILm0EE7MatchesISt5tupleIJNS_7MatcherIiEENS5_IPKiEES6_EES4_IJiS8_iEEEEbRKT_RKT0_
FNDA:0,_ZN7testing8internal11TuplePrefixILm0EE22ExplainMatchFailuresToISt5tupleIJNS_7MatcherIiEENS5_IP17spi_transaction_tEEEES4_IJiS8_EEEEvRKT_RKT0_PSo
FNDA:0,_ZN7testing8internal11TuplePrefixILm0EE22ExplainMatchFailuresToISt5tupleIJNS_7MatcherIiEENS5_IPKiEENS5_IPiEEEES4_IJiS8_SA_EEEEvRKT_RKT0_PSo
FNDA:0,_ZN7testing8internal11TuplePrefixILm0EE22ExplainMatchFailuresToISt5tupleIJNS_7MatcherIiEENS5_IPKiEES6_EES4_IJiS8_iEEEEvRKT_RKT0_PSo
FNDA:0,_ZN7testing8internal12TupleMatchesISt5tupleIJNS_7MatcherIiEENS3_IP17spi_transaction_tEEEES2_IJiS6_EEEEbRKT_RKT0_
FNDA:0,_ZN7testing8internal12TupleMatchesISt5tupleIJNS_7MatcherIiEENS3_IPKiEENS3_IPiEEEES2_IJiS6_S8_EEEEbRKT_RKT0_
FNDA:1,_ZN7testing8internal12TupleMatchesISt5tupleIJNS_7MatcherIiEENS3_IPKiEES4_EES2_IJiS6_iEEEEbRKT_RKT0_
FNDA:0,_ZN7testing8internal26ExplainMatchFailureTupleToISt5tupleIJNS_7MatcherIiEENS3_IP17spi_transaction_tEEEES2_IJiS6_EEEEvRKT_RKT0_PSo
FNDA:0,_ZN7testing8internal26ExplainMatchFailureTupleToISt5tupleIJNS_7MatcherIiEENS3_IPKiEENS3_IPiEEEES2_IJiS6_S8_EEEEvRKT_RKT0_PSo
FNDA:0,_ZN7testing8internal26ExplainMatchFailureTupleToISt5tupleIJNS_7MatcherIiEENS3_IPKiEES4_EES2_IJiS6_iEEEEvRKT_RKT0_PSo
FNDA:1,_ZNK7testing8internal15AnythingMatcher15MatchAndExplainIPKiEEbRKT_PSo
FNDA:1,_ZNK7testing8internal15AnythingMatcher15MatchAndExplainISt5tupleIJiPKiiEEEEbRKT_PSo
FNDA:0,_ZNK7testing8internal15AnythingMatcher10DescribeToEPSo
FNDA:0,_ZNK7testing8internal15AnythingMatcher18DescribeNegationToEPSo
FNF:36
FNH:8
DA:305,0
DA:308,0
DA:562,0
DA:564,0
DA:565,0
DA:567,0
DA:616,3
DA:618,6
DA:619,6
DA:627,0
DA:631,0
DA:635,0
DA:636,0
DA:638,0
DA:639,0
DA:640,0
DA:641,0
DA:642,0
DA:643,0
DA:649,0
DA:650,0
DA:651,0
DA:653,0
DA:661,1
DA:663,1
DA:667,0
DA:669,0
DA:678,1
DA:685,1
DA:686,1
DA:692,0
DA:694,0
DA:696,0
DA:747,2
DA:748,2
DA:750,0
DA:751,0
DA:755,0
DA:756,0
DA:4234,1
DA:4235,1
LF:41
LH:12
end_of_record
TN:
SF:/home/marco/Documents/Dev/TrabajoFinal/Software/.pio/libdeps/native/googletest/googlemock/include/gmock/gmock-spec-builders.h
FN:1059,1059,_ZNK7testing8internal16TypedExpectationIFiiP17spi_transaction_tEE15repeated_actionEv
FN:1059,1059,_ZNK7testing8internal16TypedExpectationIFiiPKiPiEE15repeated_actionEv
FN:1059,1059,_ZNK7testing8internal16TypedExpectationIFiiPKiiEE15repeated_actionEv
FN:1063,1069,_ZN7testing8internal16TypedExpectationIFiiPKiiEE27MaybeDescribeExtraMatcherToEPSo
FN:1080,1082,_ZNK7testing8internal16TypedExpectationIFiiPKiiEE13ActionAdaptorclEOiOS3_S7_
FN:1087,1087,_ZN7testing8internal16TypedExpectationIFiiPKiiEE9GetHandleEv
FN:1094,1098,_ZNK7testing8internal16TypedExpectationIFiiP17spi_transaction_tEE7MatchesERKSt5tupleIJiS3_EE
FN:1094,1098,_ZNK7testing8internal16TypedExpectationIFiiPKiPiEE7MatchesERKSt5tupleIJiS3_S4_EE
FN:1094,1098,_ZNK7testing8internal16TypedExpectationIFiiPKiiEE7MatchesERKSt5tupleIJiS3_iEE
FN:1102,1112,_ZNK7testing8internal16TypedExpectationIFiiP17spi_transaction_tEE21ShouldHandleArgumentsERKSt5tupleIJiS3_EE
FN:1102,1112,_ZNK7testing8internal16TypedExpectationIFiiPKiPiEE21ShouldHandleArgumentsERKSt5tupleIJiS3_S4_EE
FN:1102,1112,_ZNK7testing8internal16TypedExpectationIFiiPKiiEE21ShouldHandleArgumentsERKSt5tupleIJiS3_iEE
FN:1116,1156,_ZNK7testing8internal16TypedExpectationIFiiP17spi_transaction_tEE20ExplainMatchResultToERKSt5tupleIJiS3_EEPSo
FN:1116,1156,_ZNK7testing8internal16TypedExpectationIFiiPKiPiEE20ExplainMatchResultToERKSt5tupleIJiS3_S4_EEPSo
FN:1116,1156,_ZNK7testing8internal16TypedExpectationIFiiPKiiEE20ExplainMatchResultToERKSt5tupleIJiS3_iEEPSo
FN:1159,1187,_ZNK7testing8internal16TypedExpectationIFiiP17spi_transaction_tEE16GetCurrentActionEPKNS0_14FunctionMockerIS4_EERKSt5tupleIJiS3_EE
FN:1159,1187,_ZNK7testing8internal16TypedExpectationIFiiPKiPiEE16GetCurrentActionEPKNS0_14FunctionMockerIS5_EERKSt5tupleIJiS3_S4_EE
FN:1159,1187,_ZNK7testing8internal16TypedExpectationIFiiPKiiEE16GetCurrentActionEPKNS0_14FunctionMockerIS4_EERKSt5tupleIJiS3_iEE
FN:1196,1222,_ZN7testing8internal16TypedExpectationIFiiP17spi_transaction_tEE21GetActionForArgumentsEPKNS0_14FunctionMockerIS4_EERKSt5tupleIJiS3_EEPSoSE_
FN:1196,1222,_ZN7testing8internal16TypedExpectationIFiiPKiPiEE21GetActionForArgumentsEPKNS0_14FunctionMockerIS5_EERKSt5tupleIJiS3_S4_EEPSoSF_
FN:1196,1222,_ZN7testing8internal16TypedExpectationIFiiPKiiEE21GetActionForArgumentsEPKNS0_14FunctionMockerIS4_EERKSt5tupleIJiS3_iEEPSoSE_
FN:1259,1261,_ZN7testing8internal8MockSpecIFiiPKiiEEC2EPNS0_14FunctionMockerIS4_EERKSt5tupleIJNS_7MatcherIiEENSA_IS3_EESB_EE
FN:1275,1283,_ZN7testing8internal8MockSpecIFiiPKiiEE18InternalExpectedAtEPKciS7_S7_
FN:1288,1290,_ZN7testing8internal8MockSpecIFiiPKiiEEclERKNS0_15WithoutMatchersEPv
FN:1350,1354,_ZN7testing8internal19PrintAsActionResultIiEEvRKT_RSo
FN:1364,1364,_ZN7testing8internal7CleanupC2ESt8functionIFvvEE
FN:1365,1365,_ZN7testing8internal7CleanupD2Ev
FN:1383,1383,_ZN7testing8internal14FunctionMockerIFiiP17spi_transaction_tEEC2Ev
FN:1383,1383,_ZN7testing8internal14FunctionMockerIFiiPKiPiEEC2Ev
FN:1383,1383,_ZN7testing8internal14FunctionMockerIFiiPKiiEEC2Ev
FN:1403,1408,_ZN7testing8internal14FunctionMockerIFiiP17spi_transaction_tEED0Ev
FN:1403,1408,_ZN7testing8internal14FunctionMockerIFiiP17spi_transaction_tEED2Ev
FN:1403,1408,_ZN7testing8internal14FunctionMockerIFiiPKiPiEED0Ev
FN:1403,1408,_ZN7testing8internal14FunctionMockerIFiiPKiPiEED2Ev
FN:1403,1408,_ZN7testing8internal14FunctionMockerIFiiPKiiEED0Ev
FN:1403,1408,_ZN7testing8internal14FunctionMockerIFiiPKiiEED2Ev
FN:1413,1422,_ZNK7testing8internal14FunctionMockerIFiiP17spi_transaction_tEE14FindOnCallSpecERKSt5tupleIJiS3_EE
FN:1413,1422,_ZNK7testing8internal14FunctionMockerIFiiPKiPiEE14FindOnCallSpecERKSt5tupleIJiS3_S4_EE
FN:1413,1422,_ZNK7testing8internal14FunctionMockerIFiiPKiiEE14FindOnCallSpecERKSt5tupleIJiS3_iEE
FN:1431,1449,_ZNK7testing8internal14FunctionMockerIFiiP17spi_transaction_tEE20PerformDefaultActionEOSt5tupleIJiS3_EERKNSt7__cxx1112basic_stringIcSt11char_traitsIcESaIcEEE
FN:1431,1449,_ZNK7testing8internal14FunctionMockerIFiiPKiPiEE20PerformDefaultActionEOSt5tupleIJiS3_S4_EERKNSt7__cxx1112basic_stringIcSt11char_traitsIcESaIcEEE
FN:1431,1449,_ZNK7testing8internal14FunctionMockerIFiiPKiiEE20PerformDefaultActionEOSt5tupleIJiS3_iEERKNSt7__cxx1112basic_stringIcSt11char_traitsIcESaIcEEE
FN:1453,1476,_ZN7testing8internal14FunctionMockerIFiiP17spi_transaction_tEE25ClearDefaultActionsLockedEv
FN:1453,1476,_ZN7testing8internal14FunctionMockerIFiiPKiPiEE25ClearDefaultActionsLockedEv
FN:1453,1476,_ZN7testing8internal14FunctionMockerIFiiPKiiEE25ClearDefaultActionsLockedEv
FN:1481,1483,_ZN7testing8internal14FunctionMockerIFiiP17spi_transaction_tEE6InvokeEiS3_
FN:1481,1483,_ZN7testing8internal14FunctionMockerIFiiPKiPiEE6InvokeEiS3_S4_
FN:1481,1483,_ZN7testing8internal14FunctionMockerIFiiPKiiEE6InvokeEiS3_i
FN:1485,1487,_ZN7testing8internal14FunctionMockerIFiiPKiiEE4WithENS_7MatcherIiEENS6_IS3_EES7_
FN:1504,1523,_ZN7testing8internal14FunctionMockerIFiiPKiiEE17AddNewExpectationEPKciRKNSt7__cxx1112basic_stringIcSt11char_traitsIcESaIcEEERKSt5tupleIJNS_7MatcherIiEENSH_IS3_EESI_EE
FN:1534,1545,_ZNK7testing8internal14FunctionMockerIFiiP17spi_transaction_tEE23DescribeDefaultActionToERKSt5tupleIJiS3_EEPSo
FN:1534,1545,_ZNK7testing8internal14FunctionMockerIFiiPKiPiEE23DescribeDefaultActionToERKSt5tupleIJiS3_S4_EEPSo
FN:1534,1545,_ZNK7testing8internal14FunctionMockerIFiiPKiiEE23DescribeDefaultActionToERKSt5tupleIJiS3_iEEPSo
FN:1550,1559,_ZNK7testing8internal14FunctionMockerIFiiP17spi_transaction_tEE32UntypedDescribeUninterestingCallEPKvPSo
FN:1550,1559,_ZNK7testing8internal14FunctionMockerIFiiPKiPiEE32UntypedDescribeUninterestingCallEPKvPSo
FN:1550,1559,_ZNK7testing8internal14FunctionMockerIFiiPKiiEE32UntypedDescribeUninterestingCallEPKvPSo
FN:1577,1599,_ZN7testing8internal14FunctionMockerIFiiP17spi_transaction_tEE30UntypedFindMatchingExpectationEPKvPS7_PbPSoSA_
FN:1577,1599,_ZN7testing8internal14FunctionMockerIFiiPKiPiEE30UntypedFindMatchingExpectationEPKvPS8_PbPSoSB_
FN:1577,1599,_ZN7testing8internal14FunctionMockerIFiiPKiiEE30UntypedFindMatchingExpectationEPKvPS7_PbPSoSA_
FN:1602,1607,_ZNK7testing8internal14FunctionMockerIFiiP17spi_transaction_tEE16UntypedPrintArgsEPKvPSo
FN:1602,1607,_ZNK7testing8internal14FunctionMockerIFiiPKiPiEE16UntypedPrintArgsEPKvPSo
FN:1602,1607,_ZNK7testing8internal14FunctionMockerIFiiPKiiEE16UntypedPrintArgsEPKvPSo
FN:1611,1626,_ZNK7testing8internal14FunctionMockerIFiiP17spi_transaction_tEE29FindMatchingExpectationLockedERKSt5tupleIJiS3_EE
FN:1611,1626,_ZNK7testing8internal14FunctionMockerIFiiPKiPiEE29FindMatchingExpectationLockedERKSt5tupleIJiS3_S4_EE
FN:1611,1626,_ZNK7testing8internal14FunctionMockerIFiiPKiiEE29FindMatchingExpectationLockedERKSt5tupleIJiS3_iEE
FN:1629,1637,_ZNK7testing8internal14FunctionMockerIFiiP17spi_transaction_tEE33FormatUnexpectedCallMessageLockedERKSt5tupleIJiS3_EEPSoSA_
FN:1629,1637,_ZNK7testing8internal14FunctionMockerIFiiPKiPiEE33FormatUnexpectedCallMessageLockedERKSt5tupleIJiS3_S4_EEPSoSB_
FN:1629,1637,_ZNK7testing8internal14FunctionMockerIFiiPKiiEE33FormatUnexpectedCallMessageLockedERKSt5tupleIJiS3_iEEPSoSA_
FN:1641,1662,_ZNK7testing8internal14FunctionMockerIFiiP17spi_transaction_tEE28PrintTriedExpectationsLockedERKSt5tupleIJiS3_EEPSo
FN:1641,1662,_ZNK7testing8internal14FunctionMockerIFiiPKiPiEE28PrintTriedExpectationsLockedERKSt5tupleIJiS3_S4_EEPSo
FN:1641,1662,_ZNK7testing8internal14FunctionMockerIFiiPKiiEE28PrintTriedExpectationsLockedERKSt5tupleIJiS3_iEEPSo
FN:1667,1677,_ZNK7testing8internal14FunctionMockerIFiiP17spi_transaction_tEE13PerformActionEPKvOSt5tupleIJiS3_EERKNSt7__cxx1112basic_stringIcSt11char_traitsIcESaIcEEE
FN:1667,1677,_ZNK7testing8internal14FunctionMockerIFiiPKiPiEE13PerformActionEPKvOSt5tupleIJiS3_S4_EERKNSt7__cxx1112basic_stringIcSt11char_traitsIcESaIcEEE
FN:1667,1677,_ZNK7testing8internal14FunctionMockerIFiiPKiiEE13PerformActionEPKvOSt5tupleIJiS3_iEERKNSt7__cxx1112basic_stringIcSt11char_traitsIcESaIcEEE
FN:1692,1700,_ZN7testing8internal14FunctionMockerIFiiP17spi_transaction_tEE27PerformActionAndPrintResultIiLi0EEEiPKvOSt5tupleIJiS3_EERKNSt7__cxx1112basic_stringIcSt11char_traitsIcESaIcEEERSo
FN:1692,1700,_ZN7testing8internal14FunctionMockerIFiiPKiPiEE27PerformActionAndPrintResultIiLi0EEEiPKvOSt5tupleIJiS3_S4_EERKNSt7__cxx1112basic_stringIcSt11char_traitsIcESaIcEEERSo
FN:1692,1700,_ZN7testing8internal14FunctionMockerIFiiPKiiEE27PerformActionAndPrintResultIiLi0EEEiPKvOSt5tupleIJiS3_iEERKNSt7__cxx1112basic_stringIcSt11char_traitsIcESaIcEEERSo
FN:1723,1833,_ZN7testing8internal14FunctionMockerIFiiP17spi_transaction_tEE10InvokeWithEOSt5tupleIJiS3_EE
FN:1723,1833,_ZN7testing8internal14FunctionMockerIFiiPKiPiEE10InvokeWithEOSt5tupleIJiS3_S4_EE
FN:1723,1833,_ZN7testing8internal14FunctionMockerIFiiPKiiEE10InvokeWithEOSt5tupleIJiS3_iEE
FN:1770,1770,_ZZN7testing8internal14FunctionMockerIFiiP17spi_transaction_tEE10InvokeWithEOSt5tupleIJiS3_EEENKUlvE_clEv
FN:1770,1770,_ZZN7testing8internal14FunctionMockerIFiiPKiPiEE10InvokeWithEOSt5tupleIJiS3_S4_EEENKUlvE_clEv
FN:1770,1770,_ZZN7testing8internal14FunctionMockerIFiiPKiiEE10InvokeWithEOSt5tupleIJiS3_iEEENKUlvE_clEv
FN:1814,1814,_ZZN7testing8internal14FunctionMockerIFiiP17spi_transaction_tEE10InvokeWithEOSt5tupleIJiS3_EEENKUlvE0_clEv
FN:1814,1814,_ZZN7testing8internal14FunctionMockerIFiiPKiPiEE10InvokeWithEOSt5tupleIJiS3_S4_EEENKUlvE0_clEv
FN:1814,1814,_ZZN7testing8internal14FunctionMockerIFiiPKiiEE10InvokeWithEOSt5tupleIJiS3_iEEENKUlvE0_clEv
FN:242,242,_ZNK7testing8internal21UntypedOnCallSpecBase4fileEv
FN:243,243,_ZNK7testing8internal21UntypedOnCallSpecBase4lineEv
FN:256,259,_ZNK7testing8internal21UntypedOnCallSpecBase18AssertSpecPropertyEbRKNSt7__cxx1112basic_stringIcSt11char_traitsIcESaIcEEE
FN:319,321,_ZNK7testing8internal10OnCallSpecIFiiP17spi_transaction_tEE7MatchesERKSt5tupleIJiS3_EE
FN:319,321,_ZNK7testing8internal10OnCallSpecIFiiPKiPiEE7MatchesERKSt5tupleIJiS3_S4_EE
FN:319,321,_ZNK7testing8internal10OnCallSpecIFiiPKiiEE7MatchesERKSt5tupleIJiS3_iEE
FN:324,329,_ZNK7testing8internal10OnCallSpecIFiiP17spi_transaction_tEE9GetActionEv
FN:324,329,_ZNK7testing8internal10OnCallSpecIFiiPKiPiEE9GetActionEv
FN:324,329,_ZNK7testing8internal10OnCallSpecIFiiPKiiEE9GetActionEv
FN:535,537,_ZNK7testing11Expectation16expectation_baseEv
FN:565,565,_ZN7testing14ExpectationSetC2Ev
FN:601,601,_ZNK7testing14ExpectationSet5beginEv
FN:602,602,_ZNK7testing14ExpectationSet3endEv
FN:689,689,_ZNK7testing8internal15ExpectationBase4fileEv
FN:690,690,_ZNK7testing8internal15ExpectationBase4lineEv
FN:691,691,_ZNK7testing8internal15ExpectationBase11source_textEv
FN:693,693,_ZNK7testing8internal15ExpectationBase11cardinalityEv
FN:696,698,_ZNK7testing8internal15ExpectationBase18DescribeLocationToEPSo
FN:738,741,_ZNK7testing8internal15ExpectationBase18ExpectSpecPropertyEbRKNSt7__cxx1112basic_stringIcSt11char_traitsIcESaIcEEE
FN:749,749,_ZNK7testing8internal15ExpectationBase21cardinality_specifiedEv
FN:752,754,_ZN7testing8internal15ExpectationBase15set_cardinalityERKNS_11CardinalityE
FN:764,767,_ZNK7testing8internal15ExpectationBase10is_retiredEv
FN:770,773,_ZN7testing8internal15ExpectationBase6RetireEv
FN:782,785,_ZNK7testing8internal15ExpectationBase11IsSaturatedEv
FN:803,806,_ZNK7testing8internal15ExpectationBase10call_countEv
FN:809,812,_ZN7testing8internal15ExpectationBase18IncrementCallCountEv
FN:872,882,_ZN7testing8internal16TypedExpectationIFiiPKiiEEC2EPNS0_14FunctionMockerIS4_EEPKciRKNSt7__cxx1112basic_stringIcSt11char_traitsIcESaIcEEERKSt5tupleIJNS_7MatcherIiEENSK_IS3_EESL_EE
FN:884,892,_ZN7testing8internal16TypedExpectationIFiiPKiiEED0Ev
FN:884,892,_ZN7testing8internal16TypedExpectationIFiiPKiiEED2Ev
FN:913,916,_ZN7testing8internal16TypedExpectationIFiiPKiiEE5TimesERKNS_11CardinalityE
FN:919,919,_ZN7testing8internal16TypedExpectationIFiiPKiiEE5TimesEi
FN:981,988,_ZN7testing8internal16TypedExpectationIFiiPKiiEE8WillOnceENS_10OnceActionIS4_EE
FN:996,1008,_ZN7testing8internal16TypedExpectationIFiiPKiiEE8WillOnceIJEvEERS5_NS_6ActionIS4_EE
FNDA:0,_ZNK7testing8internal16TypedExpectationIFiiP17spi_transaction_tEE15repeated_actionEv
FNDA:0,_ZNK7testing8internal16TypedExpectationIFiiPKiPiEE15repeated_actionEv
FNDA:0,_ZNK7testing8internal16TypedExpectationIFiiPKiiEE15repeated_actionEv
FNDA:0,_ZN7testing8internal16TypedExpectationIFiiPKiiEE27MaybeDescribeExtraMatcherToEPSo
FNDA:1,_ZNK7testing8internal16TypedExpectationIFiiPKiiEE13ActionAdaptorclEOiOS3_S7_
FNDA:0,_ZN7testing8internal16TypedExpectationIFiiPKiiEE9GetHandleEv
FNDA:0,_ZNK7testing8internal16TypedExpectationIFiiP17spi_transaction_tEE7MatchesERKSt5tupleIJiS3_EE
FNDA:0,_ZNK7testing8internal16TypedExpectationIFiiPKiPiEE7MatchesERKSt5tupleIJiS3_S4_EE
FNDA:1,_ZNK7testing8internal16TypedExpectationIFiiPKiiEE7MatchesERKSt5tupleIJiS3_iEE
FNDA:0,_ZNK7testing8internal16TypedExpectationIFiiP17spi_transaction_tEE21ShouldHandleArgumentsERKSt5tupleIJiS3_EE
FNDA:0,_ZNK7testing8internal16TypedExpectationIFiiPKiPiEE21ShouldHandleArgumentsERKSt5tupleIJiS3_S4_EE
FNDA:1,_ZNK7testing8internal16TypedExpectationIFiiPKiiEE21ShouldHandleArgumentsERKSt5tupleIJiS3_iEE
FNDA:0,_ZNK7testing8internal16TypedExpectationIFiiP17spi_transaction_tEE20ExplainMatchResultToERKSt5tupleIJiS3_EEPSo
FNDA:0,_ZNK7testing8internal16TypedExpectationIFiiPKiPiEE20ExplainMatchResultToERKSt5tupleIJiS3_S4_EEPSo
FNDA:0,_ZNK7testing8internal16TypedExpectationIFiiPKiiEE20ExplainMatchResultToERKSt5tupleIJiS3_iEEPSo
FNDA:0,_ZNK7testing8internal16TypedExpectationIFiiP17spi_transaction_tEE16GetCurrentActionEPKNS0_14FunctionMockerIS4_EERKSt5tupleIJiS3_EE
FNDA:0,_ZNK7testing8internal16TypedExpectationIFiiPKiPiEE16GetCurrentActionEPKNS0_14FunctionMockerIS5_EERKSt5tupleIJiS3_S4_EE
FNDA:1,_ZNK7testing8internal16TypedExpectationIFiiPKiiEE16GetCurrentActionEPKNS0_14FunctionMockerIS4_EERKSt5tupleIJiS3_iEE
FNDA:0,_ZN7testing8internal16TypedExpectationIFiiP17spi_transaction_tEE21GetActionForArgumentsEPKNS0_14FunctionMockerIS4_EERKSt5tupleIJiS3_EEPSoSE_
FNDA:0,_ZN7testing8internal16TypedExpectationIFiiPKiPiEE21GetActionForArgumentsEPKNS0_14FunctionMockerIS5_EERKSt5tupleIJiS3_S4_EEPSoSF_
FNDA:1,_ZN7testing8internal16TypedExpectationIFiiPKiiEE21GetActionForArgumentsEPKNS0_14FunctionMockerIS4_EERKSt5tupleIJiS3_iEEPSoSE_
FNDA:1,_ZN7testing8internal8MockSpecIFiiPKiiEEC2EPNS0_14FunctionMockerIS4_EERKSt5tupleIJNS_7MatcherIiEENSA_IS3_EESB_EE
FNDA:1,_ZN7testing8internal8MockSpecIFiiPKiiEE18InternalExpectedAtEPKciS7_S7_
FNDA:1,_ZN7testing8internal8MockSpecIFiiPKiiEEclERKNS0_15WithoutMatchersEPv
FNDA:0,_ZN7testing8internal19PrintAsActionResultIiEEvRKT_RSo
FNDA:0,_ZN7testing8internal7CleanupC2ESt8functionIFvvEE
FNDA:0,_ZN7testing8internal7CleanupD2Ev
FNDA:1,_ZN7testing8internal14FunctionMockerIFiiP17spi_transaction_tEEC2Ev
FNDA:1,_ZN7testing8internal14FunctionMockerIFiiPKiPiEEC2Ev
FNDA:1,_ZN7testing8internal14FunctionMockerIFiiPKiiEEC2Ev
FNDA:0,_ZN7testing8internal14FunctionMockerIFiiP17spi_transaction_tEED0Ev
FNDA:1,_ZN7testing8internal14FunctionMockerIFiiP17spi_transaction_tEED2Ev
FNDA:0,_ZN7testing8internal14FunctionMockerIFiiPKiPiEED0Ev
FNDA:1,_ZN7testing8internal14FunctionMockerIFiiPKiPiEED2Ev
FNDA:0,_ZN7testing8internal14FunctionMockerIFiiPKiiEED0Ev
FNDA:1,_ZN7testing8internal14FunctionMockerIFiiPKiiEED2Ev
FNDA:0,_ZNK7testing8internal14FunctionMockerIFiiP17spi_transaction_tEE14FindOnCallSpecERKSt5tupleIJiS3_EE
FNDA:0,_ZNK7testing8internal14FunctionMockerIFiiPKiPiEE14FindOnCallSpecERKSt5tupleIJiS3_S4_EE
FNDA:0,_ZNK7testing8internal14FunctionMockerIFiiPKiiEE14FindOnCallSpecERKSt5tupleIJiS3_iEE
FNDA:0,_ZNK7testing8internal14FunctionMockerIFiiP17spi_transaction_tEE20PerformDefaultActionEOSt5tupleIJiS3_EERKNSt7__cxx1112basic_stringIcSt11char_traitsIcESaIcEEE
FNDA:0,_ZNK7testing8internal14FunctionMockerIFiiPKiPiEE20PerformDefaultActionEOSt5tupleIJiS3_S4_EERKNSt7__cxx1112basic_stringIcSt11char_traitsIcESaIcEEE
FNDA:0,_ZNK7testing8internal14FunctionMockerIFiiPKiiEE20PerformDefaultActionEOSt5tupleIJiS3_iEERKNSt7__cxx1112basic_stringIcSt11char_traitsIcESaIcEEE
FNDA:1,_ZN7testing8internal14FunctionMockerIFiiP17spi_transaction_tEE25ClearDefaultActionsLockedEv
FNDA:1,_ZN7testing8internal14FunctionMockerIFiiPKiPiEE25ClearDefaultActionsLockedEv
FNDA:1,_ZN7testing8internal14FunctionMockerIFiiPKiiEE25ClearDefaultActionsLockedEv
FNDA:0,_ZN7testing8internal14FunctionMockerIFiiP17spi_transaction_tEE6InvokeEiS3_
FNDA:0,_ZN7testing8internal14FunctionMockerIFiiPKiPiEE6InvokeEiS3_S4_
FNDA:1,_ZN7testing8internal14FunctionMockerIFiiPKiiEE6InvokeEiS3_i
FNDA:1,_ZN7testing8internal14FunctionMockerIFiiPKiiEE4WithENS_7MatcherIiEENS6_IS3_EES7_
FNDA:1,_ZN7testing8internal14FunctionMockerIFiiPKiiEE17AddNewExpectationEPKciRKNSt7__cxx1112basic_stringIcSt11char_traitsIcESaIcEEERKSt5tupleIJNS_7MatcherIiEENSH_IS3_EESI_EE
FNDA:0,_ZNK7testing8internal14FunctionMockerIFiiP17spi_transaction_tEE23DescribeDefaultActionToERKSt5tupleIJiS3_EEPSo
FNDA:0,_ZNK7testing8internal14FunctionMockerIFiiPKiPiEE23DescribeDefaultActionToERKSt5tupleIJiS3_S4_EEPSo
FNDA:0,_ZNK7testing8internal14FunctionMockerIFiiPKiiEE23DescribeDefaultActionToERKSt5tupleIJiS3_iEEPSo
FNDA:0,_ZNK7testing8internal14FunctionMockerIFiiP17spi_transaction_tEE32UntypedDescribeUninterestingCallEPKvPSo
FNDA:0,_ZNK7testing8internal14FunctionMockerIFiiPKiPiEE32UntypedDescribeUninterestingCallEPKvPSo
FNDA:0,_ZNK7testing8internal14FunctionMockerIFiiPKiiEE32UntypedDescribeUninterestingCallEPKvPSo
FNDA:0,_ZN7testing8internal14FunctionMockerIFiiP17spi_transaction_tEE30UntypedFindMatchingExpectationEPKvPS7_PbPSoSA_
FNDA:0,_ZN7testing8internal14FunctionMockerIFiiPKiPiEE30UntypedFindMatchingExpectationEPKvPS8_PbPSoSB_
FNDA:1,_ZN7testing8internal14FunctionMockerIFiiPKiiEE30UntypedFindMatchingExpectationEPKvPS7_PbPSoSA_
FNDA:0,_ZNK7testing8internal14FunctionMockerIFiiP17spi_transaction_tEE16UntypedPrintArgsEPKvPSo
FNDA:0,_ZNK7testing8internal14FunctionMockerIFiiPKiPiEE16UntypedPrintArgsEPKvPSo
FNDA:0,_ZNK7testing8internal14FunctionMockerIFiiPKiiEE16UntypedPrintArgsEPKvPSo
FNDA:0,_ZNK7testing8internal14FunctionMockerIFiiP17spi_transaction_tEE29FindMatchingExpectationLockedERKSt5tupleIJiS3_EE
FNDA:0,_ZNK7testing8internal14FunctionMockerIFiiPKiPiEE29FindMatchingExpectationLockedERKSt5tupleIJiS3_S4_EE
FNDA:1,_ZNK7testing8internal14FunctionMockerIFiiPKiiEE29FindMatchingExpectationLockedERKSt5tupleIJiS3_iEE
FNDA:0,_ZNK7testing8internal14FunctionMockerIFiiP17spi_transaction_tEE33FormatUnexpectedCallMessageLockedERKSt5tupleIJiS3_EEPSoSA_
FNDA:0,_ZNK7testing8internal14FunctionMockerIFiiPKiPiEE33FormatUnexpectedCallMessageLockedERKSt5tupleIJiS3_S4_EEPSoSB_
FNDA:0,_ZNK7testing8internal14FunctionMockerIFiiPKiiEE33FormatUnexpectedCallMessageLockedERKSt5tupleIJiS3_iEEPSoSA_
FNDA:0,_ZNK7testing8internal14FunctionMockerIFiiP17spi_transaction_tEE28PrintTriedExpectationsLockedERKSt5tupleIJiS3_EEPSo
FNDA:0,_ZNK7testing8internal14FunctionMockerIFiiPKiPiEE28PrintTriedExpectationsLockedERKSt5tupleIJiS3_S4_EEPSo
FNDA:0,_ZNK7testing8internal14FunctionMockerIFiiPKiiEE28PrintTriedExpectationsLockedERKSt5tupleIJiS3_iEEPSo
FNDA:0,_ZNK7testing8internal14FunctionMockerIFiiP17spi_transaction_tEE13PerformActionEPKvOSt5tupleIJiS3_EERKNSt7__cxx1112basic_stringIcSt11char_traitsIcESaIcEEE
FNDA:0,_ZNK7testing8internal14FunctionMockerIFiiPKiPiEE13PerformActionEPKvOSt5tupleIJiS3_S4_EERKNSt7__cxx1112basic_stringIcSt11char_traitsIcESaIcEEE
FNDA:1,_ZNK7testing8internal14FunctionMockerIFiiPKiiEE13PerformActionEPKvOSt5tupleIJiS3_iEERKNSt7__cxx1112basic_stringIcSt11char_traitsIcESaIcEEE
FNDA:0,_ZN7testing8internal14FunctionMockerIFiiP17spi_transaction_tEE27PerformActionAndPrintResultIiLi0EEEiPKvOSt5tupleIJiS3_EERKNSt7__cxx1112basic_stringIcSt11char_traitsIcESaIcEEERSo
FNDA:0,_ZN7testing8internal14FunctionMockerIFiiPKiPiEE27PerformActionAndPrintResultIiLi0EEEiPKvOSt5tupleIJiS3_S4_EERKNSt7__cxx1112basic_stringIcSt11char_traitsIcESaIcEEERSo
FNDA:0,_ZN7testing8internal14FunctionMockerIFiiPKiiEE27PerformActionAndPrintResultIiLi0EEEiPKvOSt5tupleIJiS3_iEERKNSt7__cxx1112basic_stringIcSt11char_traitsIcESaIcEEERSo
FNDA:0,_ZN7testing8internal14FunctionMockerIFiiP17spi_transaction_tEE10InvokeWithEOSt5tupleIJiS3_EE
FNDA:0,_ZN7testing8internal14FunctionMockerIFiiPKiPiEE10InvokeWithEOSt5tupleIJiS3_S4_EE
FNDA:1,_ZN7testing8internal14FunctionMockerIFiiPKiiEE10InvokeWithEOSt5tupleIJiS3_iEE
FNDA:0,_ZZN7testing8internal14FunctionMockerIFiiP17spi_transaction_tEE10InvokeWithEOSt5tupleIJiS3_EEENKUlvE_clEv
FNDA:0,_ZZN7testing8internal14FunctionMockerIFiiPKiPiEE10InvokeWithEOSt5tupleIJiS3_S4_EEENKUlvE_clEv
FNDA:0,_ZZN7testing8internal14FunctionMockerIFiiPKiiEE10InvokeWithEOSt5tupleIJiS3_iEEENKUlvE_clEv
FNDA:0,_ZZN7testing8internal14FunctionMockerIFiiP17spi_transaction_tEE10InvokeWithEOSt5tupleIJiS3_EEENKUlvE0_clEv
FNDA:0,_ZZN7testing8internal14FunctionMockerIFiiPKiPiEE10InvokeWithEOSt5tupleIJiS3_S4_EEENKUlvE0_clEv
FNDA:0,_ZZN7testing8internal14FunctionMockerIFiiPKiiEE10InvokeWithEOSt5tupleIJiS3_iEEENKUlvE0_clEv
FNDA:0,_ZNK7testing8internal21UntypedOnCallSpecBase4fileEv
FNDA:0,_ZNK7testing8internal21UntypedOnCallSpecBase4lineEv
FNDA:0,_ZNK7testing8internal21UntypedOnCallSpecBase18AssertSpecPropertyEbRKNSt7__cxx1112basic_stringIcSt11char_traitsIcESaIcEEE
FNDA:0,_ZNK7testing8internal10OnCallSpecIFiiP17spi_transaction_tEE7MatchesERKSt5tupleIJiS3_EE
FNDA:0,_ZNK7testing8internal10OnCallSpecIFiiPKiPiEE7MatchesERKSt5tupleIJiS3_S4_EE
FNDA:0,_ZNK7testing8internal10OnCallSpecIFiiPKiiEE7MatchesERKSt5tupleIJiS3_iEE
FNDA:0,_ZNK7testing8internal10OnCallSpecIFiiP17spi_transaction_tEE9GetActionEv
FNDA:0,_ZNK7testing8internal10OnCallSpecIFiiPKiPiEE9GetActionEv
FNDA:0,_ZNK7testing8internal10OnCallSpecIFiiPKiiEE9GetActionEv
FNDA:0,_ZNK7testing11Expectation16expectation_baseEv
FNDA:1,_ZN7testing14ExpectationSetC2Ev
FNDA:2,_ZNK7testing14ExpectationSet5beginEv
FNDA:2,_ZNK7testing14ExpectationSet3endEv
FNDA:0,_ZNK7testing8internal15ExpectationBase4fileEv
FNDA:0,_ZNK7testing8internal15ExpectationBase4lineEv
FNDA:1,_ZNK7testing8internal15ExpectationBase11source_textEv
FNDA:6,_ZNK7testing8internal15ExpectationBase11cardinalityEv
FNDA:0,_ZNK7testing8internal15ExpectationBase18DescribeLocationToEPSo
FNDA:2,_ZNK7testing8internal15ExpectationBase18ExpectSpecPropertyEbRKNSt7__cxx1112basic_stringIcSt11char_traitsIcESaIcEEE
FNDA:1,_ZNK7testing8internal15ExpectationBase21cardinality_specifiedEv
FNDA:0,_ZN7testing8internal15ExpectationBase15set_cardinalityERKNS_11CardinalityE
FNDA:2,_ZNK7testing8internal15ExpectationBase10is_retiredEv
FNDA:0,_ZN7testing8internal15ExpectationBase6RetireEv
FNDA:2,_ZNK7testing8internal15ExpectationBase11IsSaturatedEv
FNDA:1,_ZNK7testing8internal15ExpectationBase10call_countEv
FNDA:1,_ZN7testing8internal15ExpectationBase18IncrementCallCountEv
FNDA:1,_ZN7testing8internal16TypedExpectationIFiiPKiiEEC2EPNS0_14FunctionMockerIS4_EEPKciRKNSt7__cxx1112basic_stringIcSt11char_traitsIcESaIcEEERKSt5tupleIJNS_7MatcherIiEENSK_IS3_EESL_EE
FNDA:1,_ZN7testing8internal16TypedExpectationIFiiPKiiEED0Ev
FNDA:1,_ZN7testing8internal16TypedExpectationIFiiPKiiEED2Ev
FNDA:1,_ZN7testing8internal16TypedExpectationIFiiPKiiEE5TimesERKNS_11CardinalityE
FNDA:1,_ZN7testing8internal16TypedExpectationIFiiPKiiEE5TimesEi
FNDA:1,_ZN7testing8internal16TypedExpectationIFiiPKiiEE8WillOnceENS_10OnceActionIS4_EE
FNDA:1,_ZN7testing8internal16TypedExpectationIFiiPKiiEE8WillOnceIJEvEERS5_NS_6ActionIS4_EE
FNF:119
FNH:42
DA:242,0
DA:243,0
DA:256,0
DA:258,0
DA:259,0
DA:319,0
DA:320,0
DA:324,0
DA:325,0
DA:328,0
DA:535,0
DA:536,0
DA:565,1
DA:601,2
DA:602,2
DA:689,0
DA:690,0
DA:691,1
DA:693,6
DA:696,0
DA:697,0
DA:698,0
DA:738,2
DA:740,2
DA:741,2
DA:749,1
DA:752,0
DA:753,0
DA:754,0
DA:764,2
DA:765,2
DA:766,2
DA:770,0
DA:771,0
DA:772,0
DA:773,0
DA:782,2
DA:783,2
DA:784,2
DA:803,1
DA:804,1
DA:805,1
DA:809,1
DA:810,1
DA:811,1
DA:812,1
DA:872,1
DA:876,1
DA:877,1
DA:881,1
DA:882,2
DA:884,2
DA:887,1
DA:888,1
DA:889,2
DA:890,1
DA:892,3
DA:913,1
DA:914,1
DA:915,1
DA:919,1
DA:981,1
DA:985,2
DA:986,1
DA:987,2
DA:988,1
DA:996,1
DA:997,2
DA:1000,1
DA:1002,1
DA:1004,1
DA:1005,0
DA:1007,1
DA:1059,0
DA:1063,0
DA:1064,0
DA:1065,0
DA:1066,0
DA:1067,0
DA:1069,0
DA:1080,1
DA:1081,1
DA:1087,0
DA:1094,1
DA:1096,1
DA:1097,1
DA:1102,1
DA:1104,1
DA:1110,1
DA:1111,1
DA:1116,0
DA:1118,0
DA:1120,0
DA:1122,0
DA:1123,0
DA:1124,0
DA:1125,0
DA:1127,0
DA:1128,0
DA:1129,0
DA:1130,0
DA:1131,0
DA:1133,0
DA:1134,0
DA:1136,0
DA:1139,0
DA:1140,0
DA:1141,0
DA:1142,0
DA:1143,0
DA:1144,0
DA:1145,0
DA:1146,0
DA:1148,0
DA:1149,0
DA:1154,0
DA:1156,0
DA:1159,1
DA:1162,1
DA:1163,1
DA:1164,1
DA:1168,1
DA:1169,1
DA:1173,0
DA:1174,0
DA:1176,0
DA:1178,0
DA:1179,0
DA:1180,0
DA:1181,0
DA:1184,2
DA:1185,1
DA:1186,1
DA:1196,1
DA:1201,1
DA:1202,1
DA:1204,0
DA:1205,0
DA:1206,0
DA:1207,0
DA:1209,0
DA:1212,1
DA:1213,1
DA:1215,1
DA:1216,0
DA:1220,1
DA:1221,1
DA:1259,1
DA:1261,1
DA:1275,1
DA:1278,1
DA:1280,1
DA:1281,2
DA:1282,2
DA:1283,1
DA:1288,1
DA:1289,1
DA:1350,0
DA:1351,0
DA:1353,0
DA:1354,0
DA:1364,0
DA:1365,0
DA:1383,3
DA:1403,3
DA:1404,3
DA:1405,3
DA:1406,3
DA:1407,3
DA:1408,6
DA:1413,0
DA:1414,0
DA:1416,0
DA:1417,0
DA:1418,0
DA:1421,0
DA:1431,0
DA:1433,0
DA:1434,0
DA:1435,0
DA:1437,0
DA:1442,0
DA:1443,0
DA:1448,0
DA:1449,0
DA:1453,3
DA:1455,3
DA:1464,3
DA:1465,3
DA:1467,3
DA:1468,3
DA:1469,3
DA:1470,0
DA:1475,3
DA:1476,3
DA:1481,1
DA:1482,1
DA:1485,1
DA:1486,1
DA:1504,1
DA:1508,1
DA:1509,0
DA:1510,1
DA:1511,1
DA:1514,1
DA:1517,1
DA:1518,1
DA:1519,0
DA:1522,1
DA:1523,1
DA:1534,0
DA:1536,0
DA:1538,0
DA:1539,0
DA:1543,0
DA:1545,0
DA:1550,0
DA:1553,0
DA:1555,0
DA:1556,0
DA:1557,0
DA:1558,0
DA:1559,0
DA:1577,1
DA:1581,1
DA:1583,1
DA:1584,1
DA:1585,1
DA:1586,0
DA:1587,0
DA:1593,1
DA:1594,1
DA:1595,1
DA:1596,0
DA:1597,1
DA:1598,1
DA:1599,1
DA:1602,0
DA:1604,0
DA:1606,0
DA:1607,0
DA:1611,1
DA:1613,1
DA:1616,1
DA:1618,1
DA:1620,1
DA:1621,1
DA:1622,1
DA:1625,0
DA:1629,0
DA:1633,0
DA:1634,0
DA:1635,0
DA:1636,0
DA:1637,0
DA:1641,0
DA:1644,0
DA:1645,0
DA:1646,0
DA:1649,0
DA:1650,0
DA:1652,0
DA:1653,0
DA:1654,0
DA:1655,0
DA:1656,0
DA:1658,0
DA:1659,0
DA:1660,0
DA:1662,0
DA:1667,1
DA:1669,1
DA:1670,0
DA:1675,1
DA:1676,1
DA:1677,1
DA:1692,0
DA:1696,0
DA:1698,0
DA:1699,0
DA:1723,1
DA:1727,1
DA:1735,0
DA:1736,0
DA:1741,0
DA:1744,0
DA:1747,0
DA:1748,0
DA:1754,0
DA:1756,0
DA:1757,0
DA:1761,0
DA:1762,0
DA:1769,0
DA:1770,0
DA:1772,0
DA:1773,0
DA:1775,1
DA:1776,1
DA:1777,1
DA:1778,1
DA:1779,1
DA:1784,1
DA:1785,1
DA:1787,1
DA:1793,1
DA:1794,1
DA:1795,1
DA:1797,2
DA:1800,0
DA:1801,0
DA:1805,0
DA:1806,0
DA:1814,0
DA:1815,0
DA:1817,0
DA:1819,0
DA:1820,0
DA:1822,0
DA:1827,0
DA:1831,0
DA:1832,0
DA:1833,1
LF:323
LH:151
end_of_record
TN:
SF:/home/marco/Documents/Dev/TrabajoFinal/Software/.pio/libdeps/native/googletest/googlemock/include/gmock/internal/gmock-internal-utils.h
FN:228,234,_ZN7testing8internal6AssertEbPKciRKNSt7__cxx1112basic_stringIcSt11char_traitsIcESaIcEEE
FN:241,247,_ZN7testing8internal6ExpectEbPKciRKNSt7__cxx1112basic_stringIcSt11char_traitsIcESaIcEEE
FN:419,423,_ZN7testing8internal9ApplyImplIRKSt8functionIFiiP17spi_transaction_tEESt5tupleIJiS4_EEJLm0ELm1EEEEDTclcl7forwardIT_Efp_Espcl3getIXT1_EEcl7forwardIT0_Efp0_EEEEOSB_OSC_NS0_13IndexSequenceIJXspT1_EEEE
FN:419,423,_ZN7testing8internal9ApplyImplIRKSt8functionIFiiPKiPiEESt5tupleIJiS4_S5_EEJLm0ELm1ELm2EEEEDTclcl7forwardIT_Efp_Espcl3getIXT1_EEcl7forwardIT0_Efp0_EEEEOSC_OSD_NS0_13IndexSequenceIJXspT1_EEEE
FN:419,423,_ZN7testing8internal9ApplyImplIRKSt8functionIFiiPKiiEESt5tupleIJiS4_iEEJLm0ELm1ELm2EEEEDTclcl7forwardIT_Efp_Espcl3getIXT1_EEcl7forwardIT0_Efp0_EEEEOSB_OSC_NS0_13IndexSequenceIJXspT1_EEEE
FN:427,434,_ZN7testing8internal5ApplyIRKSt8functionIFiiP17spi_transaction_tEESt5tupleIJiS4_EEEEDTcl9ApplyImplcl7forwardIT_Efp_Ecl7forwardIT0_Efp0_EcvNS0_21MakeIndexSequenceImplIXsrSt10tuple_sizeINSt16remove_referenceISC_E4typeEE5valueEE4typeE_EEEOSB_OSC_
FN:427,434,_ZN7testing8internal5ApplyIRKSt8functionIFiiPKiPiEESt5tupleIJiS4_S5_EEEEDTcl9ApplyImplcl7forwardIT_Efp_Ecl7forwardIT0_Efp0_EcvNS0_21MakeIndexSequenceImplIXsrSt10tuple_sizeINSt16remove_referenceISD_E4typeEE5valueEE4typeE_EEEOSC_OSD_
FN:427,434,_ZN7testing8internal5ApplyIRKSt8functionIFiiPKiiEESt5tupleIJiS4_iEEEEDTcl9ApplyImplcl7forwardIT_Efp_Ecl7forwardIT0_Efp0_EcvNS0_21MakeIndexSequenceImplIXsrSt10tuple_sizeINSt16remove_referenceISC_E4typeEE5valueEE4typeE_EEEOSB_OSC_
FNDA:2,_ZN7testing8internal6AssertEbPKciRKNSt7__cxx1112basic_stringIcSt11char_traitsIcESaIcEEE
FNDA:2,_ZN7testing8internal6ExpectEbPKciRKNSt7__cxx1112basic_stringIcSt11char_traitsIcESaIcEEE
FNDA:0,_ZN7testing8internal9ApplyImplIRKSt8functionIFiiP17spi_transaction_tEESt5tupleIJiS4_EEJLm0ELm1EEEEDTclcl7forwardIT_Efp_Espcl3getIXT1_EEcl7forwardIT0_Efp0_EEEEOSB_OSC_NS0_13IndexSequenceIJXspT1_EEEE
FNDA:0,_ZN7testing8internal9ApplyImplIRKSt8functionIFiiPKiPiEESt5tupleIJiS4_S5_EEJLm0ELm1ELm2EEEEDTclcl7forwardIT_Efp_Espcl3getIXT1_EEcl7forwardIT0_Efp0_EEEEOSC_OSD_NS0_13IndexSequenceIJXspT1_EEEE
FNDA:1,_ZN7testing8internal9ApplyImplIRKSt8functionIFiiPKiiEESt5tupleIJiS4_iEEJLm0ELm1ELm2EEEEDTclcl7forwardIT_Efp_Espcl3getIXT1_EEcl7forwardIT0_Efp0_EEEEOSB_OSC_NS0_13IndexSequenceIJXspT1_EEEE
FNDA:0,_ZN7testing8internal5ApplyIRKSt8functionIFiiP17spi_transaction_tEESt5tupleIJiS4_EEEEDTcl9ApplyImplcl7forwardIT_Efp_Ecl7forwardIT0_Efp0_EcvNS0_21MakeIndexSequenceImplIXsrSt10tuple_sizeINSt16remove_referenceISC_E4typeEE5valueEE4typeE_EEEOSB_OSC_
FNDA:0,_ZN7testing8internal5ApplyIRKSt8functionIFiiPKiPiEESt5tupleIJiS4_S5_EEEEDTcl9ApplyImplcl7forwardIT_Efp_Ecl7forwardIT0_Efp0_EcvNS0_21MakeIndexSequenceImplIXsrSt10tuple_sizeINSt16remove_referenceISD_E4typeEE5valueEE4typeE_EEEOSC_OSD_
FNDA:1,_ZN7testing8internal5ApplyIRKSt8functionIFiiPKiiEESt5tupleIJiS4_iEEEEDTcl9ApplyImplcl7forwardIT_Efp_Ecl7forwardIT0_Efp0_EcvNS0_21MakeIndexSequenceImplIXsrSt10tuple_sizeINSt16remove_referenceISC_E4typeEE5valueEE4typeE_EEEOSB_OSC_
FNF:8
FNH:4
DA:228,2
DA:230,2
DA:231,0
DA:234,2
DA:241,2
DA:243,2
DA:244,0
DA:247,2
DA:419,1
DA:422,1
DA:427,1
DA:431,1
DA:433,1
LF:13
LH:11
end_of_record
TN:
SF:/home/marco/Documents/Dev/TrabajoFinal/Software/.pio/libdeps/native/googletest/googletest/include/gtest/gtest-assertion-result.h
FN:174,174,_ZNK7testing15AssertionResultcvbEv
FN:183,185,_ZNK7testing15AssertionResult7messageEv
FN:187,187,_ZNK7testing15AssertionResult15failure_messageEv
FNDA:1,_ZNK7testing15AssertionResultcvbEv
FNDA:0,_ZNK7testing15AssertionResult7messageEv
FNDA:0,_ZNK7testing15AssertionResult15failure_messageEv
FNF:3
FNH:1
DA:174,1
DA:183,0
DA:184,0
DA:187,0
LF:4
LH:1
end_of_record
TN:
SF:/home/marco/Documents/Dev/TrabajoFinal/Software/.pio/libdeps/native/googletest/googletest/include/gtest/gtest-matchers.h
FN:109,109,_ZN7testing19MatchResultListenerD0Ev
FN:109,109,_ZN7testing19MatchResultListenerD2Ev
FN:115,115,_ZN7testing25MatcherDescriberInterfaceD0Ev
FN:115,115,_ZN7testing25MatcherDescriberInterfaceD2Ev
FN:130,134,_ZNK7testing25MatcherDescriberInterface18DescribeNegationToEPSo
FN:183,185,_ZNK7testing8internal5AnyEqclIiiEEbRKT_RKT0_
FN:221,221,_ZN7testing8internal24DummyMatchResultListenerC2Ev
FN:244,244,_ZN7testing8internal17SharedPayloadBase3RefEv
FN:245,245,_ZN7testing8internal17SharedPayloadBase5UnrefEv
FN:268,271,_ZNK7testing8internal11MatcherBaseIP17spi_transaction_tE15MatchAndExplainERKS3_PNS_19MatchResultListenerE
FN:268,271,_ZNK7testing8internal11MatcherBaseIPKiE15MatchAndExplainERKS3_PNS_19MatchResultListenerE
FN:268,271,_ZNK7testing8internal11MatcherBaseIPiE15MatchAndExplainERKS2_PNS_19MatchResultListenerE
FN:268,271,_ZNK7testing8internal11MatcherBaseIRKSt5tupleIJiP17spi_transaction_tEEE15MatchAndExplainES7_PNS_19MatchResultListenerE
FN:268,271,_ZNK7testing8internal11MatcherBaseIRKSt5tupleIJiPKiPiEEE15MatchAndExplainES8_PNS_19MatchResultListenerE
FN:268,271,_ZNK7testing8internal11MatcherBaseIRKSt5tupleIJiPKiiEEE15MatchAndExplainES7_PNS_19MatchResultListenerE
FN:268,271,_ZNK7testing8internal11MatcherBaseIiE15MatchAndExplainERKiPNS_19MatchResultListenerE
FN:274,277,_ZNK7testing8internal11MatcherBaseIP17spi_transaction_tE7MatchesERKS3_
FN:274,277,_ZNK7testing8internal11MatcherBaseIPKiE7MatchesERKS3_
FN:274,277,_ZNK7testing8internal11MatcherBaseIPiE7MatchesERKS2_
FN:274,277,_ZNK7testing8internal11MatcherBaseIRKSt5tupleIJiP17spi_transaction_tEEE7MatchesES7_
FN:274,277,_ZNK7testing8internal11MatcherBaseIRKSt5tupleIJiPKiPiEEE7MatchesES8_
FN:274,277,_ZNK7testing8internal11MatcherBaseIRKSt5tupleIJiPKiiEEE7MatchesES7_
FN:274,277,_ZNK7testing8internal11MatcherBaseIiE7MatchesERKi
FN:280,283,_ZNK7testing8internal11MatcherBaseIP17spi_transaction_tE10DescribeToEPSo
FN:280,283,_ZNK7testing8internal11MatcherBaseIPKiE10DescribeToEPSo
FN:280,283,_ZNK7testing8internal11MatcherBaseIPiE10DescribeToEPSo
FN:280,283,_ZNK7testing8internal11MatcherBaseIRKSt5tupleIJiP17spi_transaction_tEEE10DescribeToEPSo
FN:280,283,_ZNK7testing8internal11MatcherBaseIRKSt5tupleIJiPKiPiEEE10DescribeToEPSo
FN:280,283,_ZNK7testing8internal11MatcherBaseIRKSt5tupleIJiPKiiEEE10DescribeToEPSo
FN:280,283,_ZNK7testing8internal11MatcherBaseIiE10DescribeToEPSo
FN:286,289,_ZNK7testing8internal11MatcherBaseIP17spi_transaction_tE18DescribeNegationToEPSo
FN:286,289,_ZNK7testing8internal11MatcherBaseIPKiE18DescribeNegationToEPSo
FN:286,289,_ZNK7testing8internal11MatcherBaseIPiE18DescribeNegationToEPSo
FN:286,289,_ZNK7testing8internal11MatcherBaseIRKSt5tupleIJiP17spi_transaction_tEEE18DescribeNegationToEPSo
FN:286,289,_ZNK7testing8internal11MatcherBaseIRKSt5tupleIJiPKiPiEEE18DescribeNegationToEPSo
FN:286,289,_ZNK7testing8internal11MatcherBaseIRKSt5tupleIJiPKiiEEE18DescribeNegationToEPSo
FN:286,289,_ZNK7testing8internal11MatcherBaseIiE18DescribeNegationToEPSo
FN:306,306,_ZN7testing8internal11MatcherBaseIiEC2Ev
FN:317,319,_ZN7testing8internal11MatcherBaseIPKiEC2IRKNS0_15AnythingMatcherEvEEOT_
FN:317,319,_ZN7testing8internal11MatcherBaseIRKSt5tupleIJiPKiiEEEC2IRKNS0_15AnythingMatcherEvEEOT_
FN:317,319,_ZN7testing8internal11MatcherBaseIiEC2INS0_9EqMatcherIiEEvEEOT_
FN:321,324,_ZN7testing8internal11MatcherBaseIP17spi_transaction_tEC2ERKS4_
FN:321,324,_ZN7testing8internal11MatcherBaseIPKiEC2ERKS4_
FN:321,324,_ZN7testing8internal11MatcherBaseIPiEC2ERKS3_
FN:321,324,_ZN7testing8internal11MatcherBaseIiEC2ERKS2_
FN:335,338,_ZN7testing8internal11MatcherBaseIPKiEC2EOS4_
FN:335,338,_ZN7testing8internal11MatcherBaseIiEC2EOS2_
FN:340,347,_ZN7testing8internal11MatcherBaseIiEaSEOS2_
FN:349,349,_ZN7testing8internal11MatcherBaseIP17spi_transaction_tED0Ev
FN:349,349,_ZN7testing8internal11MatcherBaseIP17spi_transaction_tED2Ev
FN:349,349,_ZN7testing8internal11MatcherBaseIPKiED0Ev
FN:349,349,_ZN7testing8internal11MatcherBaseIPKiED2Ev
FN:349,349,_ZN7testing8internal11MatcherBaseIPiED0Ev
FN:349,349,_ZN7testing8internal11MatcherBaseIPiED2Ev
FN:349,349,_ZN7testing8internal11MatcherBaseIRKSt5tupleIJiP17spi_transaction_tEEED0Ev
FN:349,349,_ZN7testing8internal11MatcherBaseIRKSt5tupleIJiP17spi_transaction_tEEED2Ev
FN:349,349,_ZN7testing8internal11MatcherBaseIRKSt5tupleIJiPKiPiEEED0Ev
FN:349,349,_ZN7testing8internal11MatcherBaseIRKSt5tupleIJiPKiPiEEED2Ev
FN:349,349,_ZN7testing8internal11MatcherBaseIRKSt5tupleIJiPKiiEEED0Ev
FN:349,349,_ZN7testing8internal11MatcherBaseIRKSt5tupleIJiPKiiEEED2Ev
FN:349,349,_ZN7testing8internal11MatcherBaseIiED0Ev
FN:349,349,_ZN7testing8internal11MatcherBaseIiED2Ev
FN:363,365,_ZNK7testing8internal11MatcherBaseIP17spi_transaction_tE8IsSharedEv
FN:363,365,_ZNK7testing8internal11MatcherBaseIPKiE8IsSharedEv
FN:363,365,_ZNK7testing8internal11MatcherBaseIPiE8IsSharedEv
FN:363,365,_ZNK7testing8internal11MatcherBaseIRKSt5tupleIJiP17spi_transaction_tEEE8IsSharedEv
FN:363,365,_ZNK7testing8internal11MatcherBaseIRKSt5tupleIJiPKiPiEEE8IsSharedEv
FN:363,365,_ZNK7testing8internal11MatcherBaseIRKSt5tupleIJiPKiiEEE8IsSharedEv
FN:363,365,_ZNK7testing8internal11MatcherBaseIiE8IsSharedEv
FN:369,373,_ZN7testing8internal11MatcherBaseIPKiE19MatchAndExplainImplINS4_11ValuePolicyINS0_15AnythingMatcherELb1EEEEEDTcldtclsrT_3Getfp_E15MatchAndExplainfp0_clptfp1_L_ZNS_19MatchResultListener6streamEvEEEERKS4_RKS3_PSA_
FN:369,373,_ZN7testing8internal11MatcherBaseIRKSt5tupleIJiPKiiEEE19MatchAndExplainImplINS8_11ValuePolicyINS0_15AnythingMatcherELb1EEEEEDTcldtclsrT_3Getfp_E15MatchAndExplainfp0_clptfp1_L_ZNS_19MatchResultListener6streamEvEEEERKS8_S7_PSE_
FN:369,373,_ZN7testing8internal11MatcherBaseIiE19MatchAndExplainImplINS2_11ValuePolicyINS0_9EqMatcherIiEELb1EEEEEDTcldtclsrT_3Getfp_E15MatchAndExplainfp0_clptfp1_L_ZNS_19MatchResultListener6streamEvEEEERKS2_RKiPS9_
FN:383,390,_ZN7testing8internal11MatcherBaseIPKiE12DescribeImplINS4_11ValuePolicyINS0_15AnythingMatcherELb1EEEEEvRKS4_PSob
FN:383,390,_ZN7testing8internal11MatcherBaseIRKSt5tupleIJiPKiiEEE12DescribeImplINS8_11ValuePolicyINS0_15AnythingMatcherELb1EEEEEvRKS8_PSob
FN:383,390,_ZN7testing8internal11MatcherBaseIiE12DescribeImplINS2_11ValuePolicyINS0_9EqMatcherIiEELb1EEEEEvRKS2_PSob
FN:393,406,_ZN7testing8internal11MatcherBaseIPKiE16GetDescriberImplINS4_11ValuePolicyINS0_15AnythingMatcherELb1EEEEEPKNS_25MatcherDescriberInterfaceERKS4_
FN:393,406,_ZN7testing8internal11MatcherBaseIRKSt5tupleIJiPKiiEEE16GetDescriberImplINS8_11ValuePolicyINS0_15AnythingMatcherELb1EEEEEPKNS_25MatcherDescriberInterfaceERKS8_
FN:393,406,_ZN7testing8internal11MatcherBaseIiE16GetDescriberImplINS2_11ValuePolicyINS0_9EqMatcherIiEELb1EEEEEPKNS_25MatcherDescriberInterfaceERKS2_
FN:409,414,_ZN7testing8internal11MatcherBaseIPKiE9GetVTableINS4_11ValuePolicyINS0_15AnythingMatcherELb1EEEEEPKNS4_6VTableEv
FN:409,414,_ZN7testing8internal11MatcherBaseIRKSt5tupleIJiPKiiEEE9GetVTableINS8_11ValuePolicyINS0_15AnythingMatcherELb1EEEEEPKNS8_6VTableEv
FN:409,414,_ZN7testing8internal11MatcherBaseIiE9GetVTableINS2_11ValuePolicyINS0_9EqMatcherIiEELb1EEEEEPKNS2_6VTableEv
FN:425,429,_ZN7testing8internal11MatcherBaseIP17spi_transaction_tE7DestroyEv
FN:425,429,_ZN7testing8internal11MatcherBaseIPKiE7DestroyEv
FN:425,429,_ZN7testing8internal11MatcherBaseIPiE7DestroyEv
FN:425,429,_ZN7testing8internal11MatcherBaseIRKSt5tupleIJiP17spi_transaction_tEEE7DestroyEv
FN:425,429,_ZN7testing8internal11MatcherBaseIRKSt5tupleIJiPKiPiEEE7DestroyEv
FN:425,429,_ZN7testing8internal11MatcherBaseIRKSt5tupleIJiPKiiEEE7DestroyEv
FN:425,429,_ZN7testing8internal11MatcherBaseIiE7DestroyEv
FN:440,446,_ZN7testing8internal11MatcherBaseIPKiE11ValuePolicyINS0_15AnythingMatcherELb1EE3GetERKS4_
FN:440,446,_ZN7testing8internal11MatcherBaseIRKSt5tupleIJiPKiiEEE11ValuePolicyINS0_15AnythingMatcherELb1EE3GetERKS8_
FN:440,446,_ZN7testing8internal11MatcherBaseIiE11ValuePolicyINS0_9EqMatcherIiEELb1EE3GetERKS2_
FN:447,449,_ZN7testing8internal11MatcherBaseIPKiE11ValuePolicyINS0_15AnythingMatcherELb1EE4InitERS4_S6_
FN:447,449,_ZN7testing8internal11MatcherBaseIRKSt5tupleIJiPKiiEEE11ValuePolicyINS0_15AnythingMatcherELb1EE4InitERS8_SA_
FN:447,449,_ZN7testing8internal11MatcherBaseIiE11ValuePolicyINS0_9EqMatcherIiEELb1EE4InitERS2_S5_
FN:481,486,_ZN7testing8internal11MatcherBaseIPKiE4InitIRKNS0_15AnythingMatcherEEEvOT_
FN:481,486,_ZN7testing8internal11MatcherBaseIRKSt5tupleIJiPKiiEEE4InitIRKNS0_15AnythingMatcherEEEvOT_
FN:481,486,_ZN7testing8internal11MatcherBaseIiE4InitINS0_9EqMatcherIiEEEEvOT_
FN:519,519,_ZN7testing7MatcherIPKiEC2IRKNS_8internal15AnythingMatcherEvEEOT_
FN:519,519,_ZN7testing7MatcherIRKSt5tupleIJiPKiiEEEC2IRKNS_8internal15AnythingMatcherEvEEOT_
FN:519,519,_ZN7testing7MatcherIiEC2INS_8internal9EqMatcherIiEEvEEOT_
FN:730,730,_ZN7testing8internal14ComparisonBaseINS0_9EqMatcherIiEEiNS0_5AnyEqEEC2ERKi
FN:735,737,_ZNK7testing8internal14ComparisonBaseINS0_9EqMatcherIiEEiNS0_5AnyEqEE15MatchAndExplainIiEEbRKT_PSo
FN:738,741,_ZNK7testing8internal14ComparisonBaseINS0_9EqMatcherIiEEiNS0_5AnyEqEE10DescribeToEPSo
FN:742,745,_ZNK7testing8internal14ComparisonBaseINS0_9EqMatcherIiEEiNS0_5AnyEqEE18DescribeNegationToEPSo
FN:749,751,_ZN7testing8internal14ComparisonBaseINS0_9EqMatcherIiEEiNS0_5AnyEqEE6UnwrapIiEERKT_S9_
FN:763,764,_ZN7testing8internal9EqMatcherIiEC2ERKi
FN:765,765,_ZN7testing8internal9EqMatcherIiE4DescEv
FN:766,766,_ZN7testing8internal9EqMatcherIiE11NegatedDescEv
FN:82,82,_ZN7testing19MatchResultListenerC2EPSo
FN:895,897,_ZN7testing2EqIiEENS_8internal9EqMatcherIT_EES3_
FN:902,904,_ZN7testing7MatcherIiEC2Ei
FN:94,94,_ZN7testing19MatchResultListener6streamEv
FNDA:0,_ZN7testing19MatchResultListenerD0Ev
FNDA:4,_ZN7testing19MatchResultListenerD2Ev
FNDA:0,_ZN7testing25MatcherDescriberInterfaceD0Ev
FNDA:18,_ZN7testing25MatcherDescriberInterfaceD2Ev
FNDA:0,_ZNK7testing25MatcherDescriberInterface18DescribeNegationToEPSo
FNDA:2,_ZNK7testing8internal5AnyEqclIiiEEbRKT_RKT0_
FNDA:4,_ZN7testing8internal24DummyMatchResultListenerC2Ev
FNDA:0,_ZN7testing8internal17SharedPayloadBase3RefEv
FNDA:0,_ZN7testing8internal17SharedPayloadBase5UnrefEv
FNDA:0,_ZNK7testing8internal11MatcherBaseIP17spi_transaction_tE15MatchAndExplainERKS3_PNS_19MatchResultListenerE
FNDA:1,_ZNK7testing8internal11MatcherBaseIPKiE15MatchAndExplainERKS3_PNS_19MatchResultListenerE
FNDA:0,_ZNK7testing8internal11MatcherBaseIPiE15MatchAndExplainERKS2_PNS_19MatchResultListenerE
FNDA:0,_ZNK7testing8internal11MatcherBaseIRKSt5tupleIJiP17spi_transaction_tEEE15MatchAndExplainES7_PNS_19MatchResultListenerE
FNDA:0,_ZNK7testing8internal11MatcherBaseIRKSt5tupleIJiPKiPiEEE15MatchAndExplainES8_PNS_19MatchResultListenerE
FNDA:1,_ZNK7testing8internal11MatcherBaseIRKSt5tupleIJiPKiiEEE15MatchAndExplainES7_PNS_19MatchResultListenerE
FNDA:2,_ZNK7testing8internal11MatcherBaseIiE15MatchAndExplainERKiPNS_19MatchResultListenerE
FNDA:0,_ZNK7testing8internal11MatcherBaseIP17spi_transaction_tE7MatchesERKS3_
FNDA:1,_ZNK7testing8internal11MatcherBaseIPKiE7MatchesERKS3_
FNDA:0,_ZNK7testing8internal11MatcherBaseIPiE7MatchesERKS2_
FNDA:0,_ZNK7testing8internal11MatcherBaseIRKSt5tupleIJiP17spi_transaction_tEEE7MatchesES7_
FNDA:0,_ZNK7testing8internal11MatcherBaseIRKSt5tupleIJiPKiPiEEE7MatchesES8_
FNDA:1,_ZNK7testing8internal11MatcherBaseIRKSt5tupleIJiPKiiEEE7MatchesES7_
FNDA:2,_ZNK7testing8internal11MatcherBaseIiE7MatchesERKi
FNDA:0,_ZNK7testing8internal11MatcherBaseIP17spi_transaction_tE10DescribeToEPSo
FNDA:0,_ZNK7testing8internal11MatcherBaseIPKiE10DescribeToEPSo
FNDA:0,_ZNK7testing8internal11MatcherBaseIPiE10DescribeToEPSo
FNDA:0,_ZNK7testing8internal11MatcherBaseIRKSt5tupleIJiP17spi_transaction_tEEE10DescribeToEPSo
FNDA:0,_ZNK7testing8internal11MatcherBaseIRKSt5tupleIJiPKiPiEEE10DescribeToEPSo
FNDA:0,_ZNK7testing8internal11MatcherBaseIRKSt5tupleIJiPKiiEEE10DescribeToEPSo
FNDA:0,_ZNK7testing8internal11MatcherBaseIiE10DescribeToEPSo
FNDA:0,_ZNK7testing8internal11MatcherBaseIP17spi_transaction_tE18DescribeNegationToEPSo
FNDA:0,_ZNK7testing8internal11MatcherBaseIPKiE18DescribeNegationToEPSo
FNDA:0,_ZNK7testing8internal11MatcherBaseIPiE18DescribeNegationToEPSo
FNDA:0,_ZNK7testing8internal11MatcherBaseIRKSt5tupleIJiP17spi_transaction_tEEE18DescribeNegationToEPSo
FNDA:0,_ZNK7testing8internal11MatcherBaseIRKSt5tupleIJiPKiPiEEE18DescribeNegationToEPSo
FNDA:0,_ZNK7testing8internal11MatcherBaseIRKSt5tupleIJiPKiiEEE18DescribeNegationToEPSo
FNDA:0,_ZNK7testing8internal11MatcherBaseIiE18DescribeNegationToEPSo
FNDA:2,_ZN7testing8internal11MatcherBaseIiEC2Ev
FNDA:1,_ZN7testing8internal11MatcherBaseIPKiEC2IRKNS0_15AnythingMatcherEvEEOT_
FNDA:1,_ZN7testing8internal11MatcherBaseIRKSt5tupleIJiPKiiEEEC2IRKNS0_15AnythingMatcherEvEEOT_
FNDA:2,_ZN7testing8internal11MatcherBaseIiEC2INS0_9EqMatcherIiEEvEEOT_
FNDA:0,_ZN7testing8internal11MatcherBaseIP17spi_transaction_tEC2ERKS4_
FNDA:3,_ZN7testing8internal11MatcherBaseIPKiEC2ERKS4_
FNDA:0,_ZN7testing8internal11MatcherBaseIPiEC2ERKS3_
FNDA:6,_ZN7testing8internal11MatcherBaseIiEC2ERKS2_
FNDA:1,_ZN7testing8internal11MatcherBaseIPKiEC2EOS4_
FNDA:2,_ZN7testing8internal11MatcherBaseIiEC2EOS2_
FNDA:2,_ZN7testing8internal11MatcherBaseIiEaSEOS2_
FNDA:0,_ZN7testing8internal11MatcherBaseIP17spi_transaction_tED0Ev
FNDA:0,_ZN7testing8internal11MatcherBaseIP17spi_transaction_tED2Ev
FNDA:0,_ZN7testing8internal11MatcherBaseIPKiED0Ev
FNDA:5,_ZN7testing8internal11MatcherBaseIPKiED2Ev
FNDA:0,_ZN7testing8internal11MatcherBaseIPiED0Ev
FNDA:0,_ZN7testing8internal11MatcherBaseIPiED2Ev
FNDA:0,_ZN7testing8internal11MatcherBaseIRKSt5tupleIJiP17spi_transaction_tEEED0Ev
FNDA:0,_ZN7testing8internal11MatcherBaseIRKSt5tupleIJiP17spi_transaction_tEEED2Ev
FNDA:0,_ZN7testing8internal11MatcherBaseIRKSt5tupleIJiPKiPiEEED0Ev
FNDA:0,_ZN7testing8internal11MatcherBaseIRKSt5tupleIJiPKiPiEEED2Ev
FNDA:0,_ZN7testing8internal11MatcherBaseIRKSt5tupleIJiPKiiEEED0Ev
FNDA:1,_ZN7testing8internal11MatcherBaseIRKSt5tupleIJiPKiiEEED2Ev
FNDA:0,_ZN7testing8internal11MatcherBaseIiED0Ev
FNDA:12,_ZN7testing8internal11MatcherBaseIiED2Ev
FNDA:0,_ZNK7testing8internal11MatcherBaseIP17spi_transaction_tE8IsSharedEv
FNDA:8,_ZNK7testing8internal11MatcherBaseIPKiE8IsSharedEv
FNDA:0,_ZNK7testing8internal11MatcherBaseIPiE8IsSharedEv
FNDA:0,_ZNK7testing8internal11MatcherBaseIRKSt5tupleIJiP17spi_transaction_tEEE8IsSharedEv
FNDA:0,_ZNK7testing8internal11MatcherBaseIRKSt5tupleIJiPKiPiEEE8IsSharedEv
FNDA:1,_ZNK7testing8internal11MatcherBaseIRKSt5tupleIJiPKiiEEE8IsSharedEv
FNDA:20,_ZNK7testing8internal11MatcherBaseIiE8IsSharedEv
FNDA:1,_ZN7testing8internal11MatcherBaseIPKiE19MatchAndExplainImplINS4_11ValuePolicyINS0_15AnythingMatcherELb1EEEEEDTcldtclsrT_3Getfp_E15MatchAndExplainfp0_clptfp1_L_ZNS_19MatchResultListener6streamEvEEEERKS4_RKS3_PSA_
FNDA:1,_ZN7testing8internal11MatcherBaseIRKSt5tupleIJiPKiiEEE19MatchAndExplainImplINS8_11ValuePolicyINS0_15AnythingMatcherELb1EEEEEDTcldtclsrT_3Getfp_E15MatchAndExplainfp0_clptfp1_L_ZNS_19MatchResultListener6streamEvEEEERKS8_S7_PSE_
FNDA:2,_ZN7testing8internal11MatcherBaseIiE19MatchAndExplainImplINS2_11ValuePolicyINS0_9EqMatcherIiEELb1EEEEEDTcldtclsrT_3Getfp_E15MatchAndExplainfp0_clptfp1_L_ZNS_19MatchResultListener6streamEvEEEERKS2_RKiPS9_
FNDA:0,_ZN7testing8internal11MatcherBaseIPKiE12DescribeImplINS4_11ValuePolicyINS0_15AnythingMatcherELb1EEEEEvRKS4_PSob
FNDA:0,_ZN7testing8internal11MatcherBaseIRKSt5tupleIJiPKiiEEE12DescribeImplINS8_11ValuePolicyINS0_15AnythingMatcherELb1EEEEEvRKS8_PSob
FNDA:0,_ZN7testing8internal11MatcherBaseIiE12DescribeImplINS2_11ValuePolicyINS0_9EqMatcherIiEELb1EEEEEvRKS2_PSob
FNDA:0,_ZN7testing8internal11MatcherBaseIPKiE16GetDescriberImplINS4_11ValuePolicyINS0_15AnythingMatcherELb1EEEEEPKNS_25MatcherDescriberInterfaceERKS4_
FNDA:0,_ZN7testing8internal11MatcherBaseIRKSt5tupleIJiPKiiEEE16GetDescriberImplINS8_11ValuePolicyINS0_15AnythingMatcherELb1EEEEEPKNS_25MatcherDescriberInterfaceERKS8_
FNDA:0,_ZN7testing8internal11MatcherBaseIiE16GetDescriberImplINS2_11ValuePolicyINS0_9EqMatcherIiEELb1EEEEEPKNS_25MatcherDescriberInterfaceERKS2_
FNDA:1,_ZN7testing8internal11MatcherBaseIPKiE9GetVTableINS4_11ValuePolicyINS0_15AnythingMatcherELb1EEEEEPKNS4_6VTableEv
FNDA:1,_ZN7testing8internal11MatcherBaseIRKSt5tupleIJiPKiiEEE9GetVTableINS8_11ValuePolicyINS0_15AnythingMatcherELb1EEEEEPKNS8_6VTableEv
FNDA:2,_ZN7testing8internal11MatcherBaseIiE9GetVTableINS2_11ValuePolicyINS0_9EqMatcherIiEELb1EEEEEPKNS2_6VTableEv
FNDA:0,_ZN7testing8internal11MatcherBaseIP17spi_transaction_tE7DestroyEv
FNDA:5,_ZN7testing8internal11MatcherBaseIPKiE7DestroyEv
FNDA:0,_ZN7testing8internal11MatcherBaseIPiE7DestroyEv
FNDA:0,_ZN7testing8internal11MatcherBaseIRKSt5tupleIJiP17spi_transaction_tEEE7DestroyEv
FNDA:0,_ZN7testing8internal11MatcherBaseIRKSt5tupleIJiPKiPiEEE7DestroyEv
FNDA:1,_ZN7testing8internal11MatcherBaseIRKSt5tupleIJiPKiiEEE7DestroyEv
FNDA:14,_ZN7testing8internal11MatcherBaseIiE7DestroyEv
FNDA:1,_ZN7testing8internal11MatcherBaseIPKiE11ValuePolicyINS0_15AnythingMatcherELb1EE3GetERKS4_
FNDA:1,_ZN7testing8internal11MatcherBaseIRKSt5tupleIJiPKiiEEE11ValuePolicyINS0_15AnythingMatcherELb1EE3GetERKS8_
FNDA:2,_ZN7testing8internal11MatcherBaseIiE11ValuePolicyINS0_9EqMatcherIiEELb1EE3GetERKS2_
FNDA:1,_ZN7testing8internal11MatcherBaseIPKiE11ValuePolicyINS0_15AnythingMatcherELb1EE4InitERS4_S6_
FNDA:1,_ZN7testing8internal11MatcherBaseIRKSt5tupleIJiPKiiEEE11ValuePolicyINS0_15AnythingMatcherELb1EE4InitERS8_SA_
FNDA:2,_ZN7testing8internal11MatcherBaseIiE11ValuePolicyINS0_9EqMatcherIiEELb1EE4InitERS2_S5_
FNDA:1,_ZN7testing8internal11MatcherBaseIPKiE4InitIRKNS0_15AnythingMatcherEEEvOT_
FNDA:1,_ZN7testing8internal11MatcherBaseIRKSt5tupleIJiPKiiEEE4InitIRKNS0_15AnythingMatcherEEEvOT_
FNDA:2,_ZN7testing8internal11MatcherBaseIiE4InitINS0_9EqMatcherIiEEEEvOT_
FNDA:1,_ZN7testing7MatcherIPKiEC2IRKNS_8internal15AnythingMatcherEvEEOT_
FNDA:1,_ZN7testing7MatcherIRKSt5tupleIJiPKiiEEEC2IRKNS_8internal15AnythingMatcherEvEEOT_
FNDA:2,_ZN7testing7MatcherIiEC2INS_8internal9EqMatcherIiEEvEEOT_
FNDA:2,_ZN7testing8internal14ComparisonBaseINS0_9EqMatcherIiEEiNS0_5AnyEqEEC2ERKi
FNDA:2,_ZNK7testing8internal14ComparisonBaseINS0_9EqMatcherIiEEiNS0_5AnyEqEE15MatchAndExplainIiEEbRKT_PSo
FNDA:0,_ZNK7testing8internal14ComparisonBaseINS0_9EqMatcherIiEEiNS0_5AnyEqEE10DescribeToEPSo
FNDA:0,_ZNK7testing8internal14ComparisonBaseINS0_9EqMatcherIiEEiNS0_5AnyEqEE18DescribeNegationToEPSo
FNDA:2,_ZN7testing8internal14ComparisonBaseINS0_9EqMatcherIiEEiNS0_5AnyEqEE6UnwrapIiEERKT_S9_
FNDA:2,_ZN7testing8internal9EqMatcherIiEC2ERKi
FNDA:0,_ZN7testing8internal9EqMatcherIiE4DescEv
FNDA:0,_ZN7testing8internal9EqMatcherIiE11NegatedDescEv
FNDA:4,_ZN7testing19MatchResultListenerC2EPSo
FNDA:2,_ZN7testing2EqIiEENS_8internal9EqMatcherIT_EES3_
FNDA:2,_ZN7testing7MatcherIiEC2Ei
FNDA:4,_ZN7testing19MatchResultListener6streamEv
FNF:112
FNH:54
DA:82,4
DA:94,4
DA:109,4
DA:115,18
DA:130,0
DA:131,0
DA:132,0
DA:133,0
DA:134,0
DA:183,2
DA:184,2
DA:221,4
DA:244,0
DA:245,0
DA:268,4
DA:269,4
DA:270,4
DA:274,4
DA:275,4
DA:276,8
DA:277,4
DA:280,0
DA:281,0
DA:282,0
DA:283,0
DA:286,0
DA:287,0
DA:288,0
DA:289,0
DA:306,2
DA:317,4
DA:318,4
DA:319,4
DA:321,9
DA:322,9
DA:323,9
DA:324,9
DA:335,3
DA:336,3
DA:337,3
DA:338,3
DA:340,2
DA:341,2
DA:342,2
DA:343,2
DA:344,2
DA:345,2
DA:346,2
DA:349,18
DA:363,29
DA:364,29
DA:369,4
DA:372,4
DA:383,0
DA:385,0
DA:386,0
DA:388,0
DA:390,0
DA:393,0
DA:405,0
DA:409,4
DA:413,4
DA:425,20
DA:426,20
DA:427,0
DA:429,20
DA:440,4
DA:443,4
DA:445,4
DA:447,4
DA:448,4
DA:449,4
DA:481,4
DA:484,4
DA:485,4
DA:486,4
DA:519,4
DA:730,2
DA:735,2
DA:736,2
DA:738,0
DA:739,0
DA:740,0
DA:741,0
DA:742,0
DA:743,0
DA:744,0
DA:745,0
DA:749,2
DA:750,2
DA:763,2
DA:764,2
DA:765,0
DA:766,0
DA:895,2
DA:896,2
DA:902,2
DA:903,2
DA:904,2
LF:99
LH:66
end_of_record
TN:
SF:/home/marco/Documents/Dev/TrabajoFinal/Software/.pio/libdeps/native/googletest/googletest/include/gtest/gtest-message.h
FN:148,155,_ZN7testing7MessagelsIKcEERS0_RKPT_
FN:169,169,_ZN7testing7MessagelsEb
FNDA:21,_ZN7testing7MessagelsIKcEERS0_RKPT_
FNDA:0,_ZN7testing7MessagelsEb
FNF:2
FNH:1
DA:148,21
DA:149,21
DA:150,0
DA:152,21
DA:154,21
DA:169,0
LF:6
LH:4
end_of_record
TN:
SF:/home/marco/Documents/Dev/TrabajoFinal/Software/.pio/libdeps/native/googletest/googletest/include/gtest/gtest-printers.h
FN:1035,1039,_ZN7testing13PrintToStringIbEENSt7__cxx1112basic_stringIcSt11char_traitsIcESaIcEEERKT_
FN:182,191,_ZN7testing8internal14PointerPrinter10PrintValueI17spi_transaction_tEEvPT_PSo
FN:182,191,_ZN7testing8internal14PointerPrinter10PrintValueIKiEEvPT_PSo
FN:182,191,_ZN7testing8internal14PointerPrinter10PrintValueIiEEvPT_PSo
FN:213,217,_ZN7testing8internal52internal_stream_operator_without_lexical_name_lookup13StreamPrinter10PrintValueIivRSoEEvRKT_PSo
FN:305,312,_ZN7testing8internal17PrintWithFallbackIP17spi_transaction_tEEvRKT_PSo
FN:305,312,_ZN7testing8internal17PrintWithFallbackIPKiEEvRKT_PSo
FN:305,312,_ZN7testing8internal17PrintWithFallbackIPiEEvRKT_PSo
FN:305,312,_ZN7testing8internal17PrintWithFallbackIiEEvRKT_PSo
FN:332,334,_ZN7testing8internal19FormatForComparisonIbbE6FormatB5cxx11ERKb
FN:412,415,_ZN7testing8internal33FormatForComparisonFailureMessageIbbEENSt7__cxx1112basic_stringIcSt11char_traitsIcESaIcEEERKT_RKT0_
FN:439,441,_ZN7testing8internal7PrintToIP17spi_transaction_tEEvRKT_PSo
FN:439,441,_ZN7testing8internal7PrintToIPKiEEvRKT_PSo
FN:439,441,_ZN7testing8internal7PrintToIPiEEvRKT_PSo
FN:439,441,_ZN7testing8internal7PrintToIiEEvRKT_PSo
FN:458,460,_ZN7testing8internal7PrintToEbPSo
FN:646,647,_ZN7testing8internal12PrintTupleToISt5tupleIJiP17spi_transaction_tEEEEvRKT_St17integral_constantImLm0EEPSo
FN:646,647,_ZN7testing8internal12PrintTupleToISt5tupleIJiPKiPiEEEEvRKT_St17integral_constantImLm0EEPSo
FN:646,647,_ZN7testing8internal12PrintTupleToISt5tupleIJiPKiiEEEEvRKT_St17integral_constantImLm0EEPSo
FN:650,660,_ZN7testing8internal12PrintTupleToISt5tupleIJiP17spi_transaction_tEELm1EEEvRKT_St17integral_constantImXT0_EEPSo
FN:650,660,_ZN7testing8internal12PrintTupleToISt5tupleIJiP17spi_transaction_tEELm2EEEvRKT_St17integral_constantImXT0_EEPSo
FN:650,660,_ZN7testing8internal12PrintTupleToISt5tupleIJiPKiPiEELm1EEEvRKT_St17integral_constantImXT0_EEPSo
FN:650,660,_ZN7testing8internal12PrintTupleToISt5tupleIJiPKiPiEELm2EEEvRKT_St17integral_constantImXT0_EEPSo
FN:650,660,_ZN7testing8internal12PrintTupleToISt5tupleIJiPKiPiEELm3EEEvRKT_St17integral_constantImXT0_EEPSo
FN:650,660,_ZN7testing8internal12PrintTupleToISt5tupleIJiPKiiEELm1EEEvRKT_St17integral_constantImXT0_EEPSo
FN:650,660,_ZN7testing8internal12PrintTupleToISt5tupleIJiPKiiEELm2EEEvRKT_St17integral_constantImXT0_EEPSo
FN:650,660,_ZN7testing8internal12PrintTupleToISt5tupleIJiPKiiEELm3EEEvRKT_St17integral_constantImXT0_EEPSo
FN:663,667,_ZN7testing8internal7PrintToIJiP17spi_transaction_tEEEvRKSt5tupleIJDpT_EEPSo
FN:663,667,_ZN7testing8internal7PrintToIJiPKiPiEEEvRKSt5tupleIJDpT_EEPSo
FN:663,667,_ZN7testing8internal7PrintToIJiPKiiEEEvRKSt5tupleIJDpT_EEPSo
FN:693,703,_ZN7testing8internal16UniversalPrinterIP17spi_transaction_tE5PrintERKS3_PSo
FN:693,703,_ZN7testing8internal16UniversalPrinterIPKiE5PrintERKS3_PSo
FN:693,703,_ZN7testing8internal16UniversalPrinterIPiE5PrintERKS2_PSo
FN:693,703,_ZN7testing8internal16UniversalPrinterISt5tupleIJiP17spi_transaction_tEEE5PrintERKS5_PSo
FN:693,703,_ZN7testing8internal16UniversalPrinterISt5tupleIJiPKiPiEEE5PrintERKS6_PSo
FN:693,703,_ZN7testing8internal16UniversalPrinterISt5tupleIJiPKiiEEE5PrintERKS5_PSo
FN:693,703,_ZN7testing8internal16UniversalPrinterIbE5PrintERKbPSo
FN:693,703,_ZN7testing8internal16UniversalPrinterIiE5PrintERKiPSo
FN:883,885,_ZN7testing8internal21UniversalTersePrinterIbE5PrintERKbPSo
FN:995,1000,_ZN7testing8internal14UniversalPrintIP17spi_transaction_tEEvRKT_PSo
FN:995,1000,_ZN7testing8internal14UniversalPrintIPKiEEvRKT_PSo
FN:995,1000,_ZN7testing8internal14UniversalPrintIPiEEvRKT_PSo
FN:995,1000,_ZN7testing8internal14UniversalPrintISt5tupleIJiP17spi_transaction_tEEEEvRKT_PSo
FN:995,1000,_ZN7testing8internal14UniversalPrintISt5tupleIJiPKiPiEEEEvRKT_PSo
FN:995,1000,_ZN7testing8internal14UniversalPrintISt5tupleIJiPKiiEEEEvRKT_PSo
FN:995,1000,_ZN7testing8internal14UniversalPrintIbEEvRKT_PSo
FN:995,1000,_ZN7testing8internal14UniversalPrintIiEEvRKT_PSo
FNDA:0,_ZN7testing13PrintToStringIbEENSt7__cxx1112basic_stringIcSt11char_traitsIcESaIcEEERKT_
FNDA:0,_ZN7testing8internal14PointerPrinter10PrintValueI17spi_transaction_tEEvPT_PSo
FNDA:0,_ZN7testing8internal14PointerPrinter10PrintValueIKiEEvPT_PSo
FNDA:0,_ZN7testing8internal14PointerPrinter10PrintValueIiEEvPT_PSo
FNDA:0,_ZN7testing8internal52internal_stream_operator_without_lexical_name_lookup13StreamPrinter10PrintValueIivRSoEEvRKT_PSo
FNDA:0,_ZN7testing8internal17PrintWithFallbackIP17spi_transaction_tEEvRKT_PSo
FNDA:0,_ZN7testing8internal17PrintWithFallbackIPKiEEvRKT_PSo
FNDA:0,_ZN7testing8internal17PrintWithFallbackIPiEEvRKT_PSo
FNDA:0,_ZN7testing8internal17PrintWithFallbackIiEEvRKT_PSo
FNDA:0,_ZN7testing8internal19FormatForComparisonIbbE6FormatB5cxx11ERKb
FNDA:0,_ZN7testing8internal33FormatForComparisonFailureMessageIbbEENSt7__cxx1112basic_stringIcSt11char_traitsIcESaIcEEERKT_RKT0_
FNDA:0,_ZN7testing8internal7PrintToIP17spi_transaction_tEEvRKT_PSo
FNDA:0,_ZN7testing8internal7PrintToIPKiEEvRKT_PSo
FNDA:0,_ZN7testing8internal7PrintToIPiEEvRKT_PSo
FNDA:0,_ZN7testing8internal7PrintToIiEEvRKT_PSo
FNDA:0,_ZN7testing8internal7PrintToEbPSo
FNDA:0,_ZN7testing8internal12PrintTupleToISt5tupleIJiP17spi_transaction_tEEEEvRKT_St17integral_constantImLm0EEPSo
FNDA:0,_ZN7testing8internal12PrintTupleToISt5tupleIJiPKiPiEEEEvRKT_St17integral_constantImLm0EEPSo
FNDA:0,_ZN7testing8internal12PrintTupleToISt5tupleIJiPKiiEEEEvRKT_St17integral_constantImLm0EEPSo
FNDA:0,_ZN7testing8internal12PrintTupleToISt5tupleIJiP17spi_transaction_tEELm1EEEvRKT_St17integral_constantImXT0_EEPSo
FNDA:0,_ZN7testing8internal12PrintTupleToISt5tupleIJiP17spi_transaction_tEELm2EEEvRKT_St17integral_constantImXT0_EEPSo
FNDA:0,_ZN7testing8internal12PrintTupleToISt5tupleIJiPKiPiEELm1EEEvRKT_St17integral_constantImXT0_EEPSo
FNDA:0,_ZN7testing8internal12PrintTupleToISt5tupleIJiPKiPiEELm2EEEvRKT_St17integral_constantImXT0_EEPSo
FNDA:0,_ZN7testing8internal12PrintTupleToISt5tupleIJiPKiPiEELm3EEEvRKT_St17integral_constantImXT0_EEPSo
FNDA:0,_ZN7testing8internal12PrintTupleToISt5tupleIJiPKiiEELm1EEEvRKT_St17integral_constantImXT0_EEPSo
FNDA:0,_ZN7testing8internal12PrintTupleToISt5tupleIJiPKiiEELm2EEEvRKT_St17integral_constantImXT0_EEPSo
FNDA:0,_ZN7testing8internal12PrintTupleToISt5tupleIJiPKiiEELm3EEEvRKT_St17integral_constantImXT0_EEPSo
FNDA:0,_ZN7testing8internal7PrintToIJiP17spi_transaction_tEEEvRKSt5tupleIJDpT_EEPSo
FNDA:0,_ZN7testing8internal7PrintToIJiPKiPiEEEvRKSt5tupleIJDpT_EEPSo
FNDA:0,_ZN7testing8internal7PrintToIJiPKiiEEEvRKSt5tupleIJDpT_EEPSo
FNDA:0,_ZN7testing8internal16UniversalPrinterIP17spi_transaction_tE5PrintERKS3_PSo
FNDA:0,_ZN7testing8internal16UniversalPrinterIPKiE5PrintERKS3_PSo
FNDA:0,_ZN7testing8internal16UniversalPrinterIPiE5PrintERKS2_PSo
FNDA:0,_ZN7testing8internal16UniversalPrinterISt5tupleIJiP17spi_transaction_tEEE5PrintERKS5_PSo
FNDA:0,_ZN7testing8internal16UniversalPrinterISt5tupleIJiPKiPiEEE5PrintERKS6_PSo
FNDA:0,_ZN7testing8internal16UniversalPrinterISt5tupleIJiPKiiEEE5PrintERKS5_PSo
FNDA:0,_ZN7testing8internal16UniversalPrinterIbE5PrintERKbPSo
FNDA:0,_ZN7testing8internal16UniversalPrinterIiE5PrintERKiPSo
FNDA:0,_ZN7testing8internal21UniversalTersePrinterIbE5PrintERKbPSo
FNDA:0,_ZN7testing8internal14UniversalPrintIP17spi_transaction_tEEvRKT_PSo
FNDA:0,_ZN7testing8internal14UniversalPrintIPKiEEvRKT_PSo
FNDA:0,_ZN7testing8internal14UniversalPrintIPiEEvRKT_PSo
FNDA:0,_ZN7testing8internal14UniversalPrintISt5tupleIJiP17spi_transaction_tEEEEvRKT_PSo
FNDA:0,_ZN7testing8internal14UniversalPrintISt5tupleIJiPKiPiEEEEvRKT_PSo
FNDA:0,_ZN7testing8internal14UniversalPrintISt5tupleIJiPKiiEEEEvRKT_PSo
FNDA:0,_ZN7testing8internal14UniversalPrintIbEEvRKT_PSo
FNDA:0,_ZN7testing8internal14UniversalPrintIiEEvRKT_PSo
FNF:47
FNH:0
DA:182,0
DA:183,0
DA:184,0
DA:189,0
DA:191,0
DA:213,0
DA:216,0
DA:217,0
DA:305,0
DA:311,0
DA:312,0
DA:332,0
DA:333,0
DA:412,0
DA:414,0
DA:439,0
DA:440,0
DA:441,0
DA:458,0
DA:459,0
DA:460,0
DA:646,0
DA:647,0
DA:650,0
DA:652,0
DA:656,0
DA:658,0
DA:659,0
DA:660,0
DA:663,0
DA:664,0
DA:665,0
DA:666,0
DA:667,0
DA:693,0
DA:702,0
DA:703,0
DA:883,0
DA:884,0
DA:885,0
DA:995,0
DA:999,0
DA:1000,0
DA:1035,0
DA:1036,0
DA:1037,0
DA:1038,0
DA:1039,0
LF:48
LH:0
end_of_record
TN:
SF:/home/marco/Documents/Dev/TrabajoFinal/Software/.pio/libdeps/native/googletest/googletest/include/gtest/gtest.h
FN:1338,1344,_ZN7testing8internal18CmpHelperEQFailureIbbEENS_15AssertionResultEPKcS4_RKT_RKT0_
FN:1355,1363,_ZN7testing8internal11CmpHelperEQIbbEENS_15AssertionResultEPKcS4_RKT_RKT0_
FN:1374,1378,_ZN7testing8internal8EqHelper7CompareIbbLPv0EEENS_15AssertionResultEPKcS6_RKT_RKT0_
FN:2293,2293,_Z13RUN_ALL_TESTSv
FN:244,244,_ZN7testing4Test14SetUpTestSuiteEv
FN:252,252,_ZN7testing4Test17TearDownTestSuiteEv
FN:257,257,_ZN7testing4Test16TearDownTestCaseEv
FN:258,258,_ZN7testing4Test13SetUpTestCaseEv
FN:339,339,_ZN7testing4Test5SetupEv
FNDA:0,_ZN7testing8internal18CmpHelperEQFailureIbbEENS_15AssertionResultEPKcS4_RKT_RKT0_
FNDA:1,_ZN7testing8internal11CmpHelperEQIbbEENS_15AssertionResultEPKcS4_RKT_RKT0_
FNDA:1,_ZN7testing8internal8EqHelper7CompareIbbLPv0EEENS_15AssertionResultEPKcS6_RKT_RKT0_
FNDA:2,_Z13RUN_ALL_TESTSv
FNDA:0,_ZN7testing4Test14SetUpTestSuiteEv
FNDA:0,_ZN7testing4Test17TearDownTestSuiteEv
FNDA:0,_ZN7testing4Test16TearDownTestCaseEv
FNDA:0,_ZN7testing4Test13SetUpTestCaseEv
FNDA:0,_ZN7testing4Test5SetupEv
FNF:9
FNH:3
DA:244,0
DA:252,0
DA:257,0
DA:258,0
DA:339,0
DA:1338,0
DA:1343,0
DA:1355,1
DA:1358,1
DA:1359,1
DA:1362,0
DA:1374,1
DA:1377,1
DA:2293,2
LF:14
LH:6
end_of_record
TN:
SF:/home/marco/Documents/Dev/TrabajoFinal/Software/.pio/libdeps/native/googletest/googletest/include/gtest/internal/gtest-internal.h
FN:431,437,_ZN7testing8internal9GetTypeIdIN8SPITests11SPIAPIsTestEEEPKvv
FN:450,450,_ZN7testing8internal15TestFactoryBaseD0Ev
FN:450,450,_ZN7testing8internal15TestFactoryBaseD2Ev
FN:457,457,_ZN7testing8internal15TestFactoryBaseC2Ev
FN:469,469,_ZN7testing8internal15TestFactoryImplIN8SPITests33SPIAPIsTest_TestConfigureSPI_TestEE10CreateTestEv
FN:490,491,_ZN7testing8internal12CodeLocationC2ERKNSt7__cxx1112basic_stringIcSt11char_traitsIcESaIcEEEi
FN:503,506,_ZN7testing8internal19GetNotDefaultOrNullEPFvvES2_
FN:518,537,_ZN7testing8internal16SuiteApiResolverIN8SPITests11SPIAPIsTestEE19GetSetUpCaseOrSuiteEPKci
FN:539,558,_ZN7testing8internal16SuiteApiResolverIN8SPITests11SPIAPIsTestEE22GetTearDownCaseOrSuiteEPKci
FNDA:1,_ZN7testing8internal9GetTypeIdIN8SPITests11SPIAPIsTestEEEPKvv
FNDA:0,_ZN7testing8internal15TestFactoryBaseD0Ev
FNDA:1,_ZN7testing8internal15TestFactoryBaseD2Ev
FNDA:1,_ZN7testing8internal15TestFactoryBaseC2Ev
FNDA:1,_ZN7testing8internal15TestFactoryImplIN8SPITests33SPIAPIsTest_TestConfigureSPI_TestEE10CreateTestEv
FNDA:1,_ZN7testing8internal12CodeLocationC2ERKNSt7__cxx1112basic_stringIcSt11char_traitsIcESaIcEEEi
FNDA:4,_ZN7testing8internal19GetNotDefaultOrNullEPFvvES2_
FNDA:1,_ZN7testing8internal16SuiteApiResolverIN8SPITests11SPIAPIsTestEE19GetSetUpCaseOrSuiteEPKci
FNDA:1,_ZN7testing8internal16SuiteApiResolverIN8SPITests11SPIAPIsTestEE22GetTearDownCaseOrSuiteEPKci
FNF:9
FNH:8
DA:431,1
DA:436,1
DA:450,1
DA:457,1
DA:469,1
DA:490,1
DA:491,1
DA:503,4
DA:505,4
DA:518,1
DA:522,1
DA:524,1
DA:526,1
DA:529,0
DA:531,1
DA:539,1
DA:543,1
DA:545,1
DA:547,1
DA:550,0
DA:552,1
LF:21
LH:19
end_of_record
TN:
SF:/home/marco/Documents/Dev/TrabajoFinal/Software/.pio/libdeps/native/googletest/googletest/include/gtest/internal/gtest-port.h
FN:1065,1067,_ZN7testing8internal13ImplicitCast_IiEET_S2_
FN:1116,1128,_ZN7testing8internal27CheckedDowncastToActualTypeINS0_11ThreadLocalIPNS_8SequenceEE11ValueHolderENS0_26ThreadLocalValueHolderBaseEEEPT_PT0_
FN:1619,1623,_ZN7testing8internal9MutexBase4LockEv
FN:1626,1633,_ZN7testing8internal9MutexBase6UnlockEv
FN:1637,1640,_ZNK7testing8internal9MutexBase10AssertHeldEv
FN:1694,1694,_ZN7testing8internal14GTestMutexLockC2EPNS0_9MutexBaseE
FN:1696,1696,_ZN7testing8internal14GTestMutexLockD2Ev
FN:1744,1744,_ZNK7testing8internal11ThreadLocalIPNS_8SequenceEE7pointerEv
FN:1745,1745,_ZNK7testing8internal11ThreadLocalIPNS_8SequenceEE3getEv
FN:1755,1755,_ZN7testing8internal11ThreadLocalIPNS_8SequenceEE11ValueHolder7pointerEv
FN:1772,1783,_ZNK7testing8internal11ThreadLocalIPNS_8SequenceEE16GetOrCreateValueEv
FN:967,967,_ZN7testing8internal8GTestLog9GetStreamEv
FNDA:1,_ZN7testing8internal13ImplicitCast_IiEET_S2_
FNDA:0,_ZN7testing8internal27CheckedDowncastToActualTypeINS0_11ThreadLocalIPNS_8SequenceEE11ValueHolderENS0_26ThreadLocalValueHolderBaseEEEPT_PT0_
FNDA:18,_ZN7testing8internal9MutexBase4LockEv
FNDA:18,_ZN7testing8internal9MutexBase6UnlockEv
FNDA:23,_ZNK7testing8internal9MutexBase10AssertHeldEv
FNDA:12,_ZN7testing8internal14GTestMutexLockC2EPNS0_9MutexBaseE
FNDA:12,_ZN7testing8internal14GTestMutexLockD2Ev
FNDA:1,_ZNK7testing8internal11ThreadLocalIPNS_8SequenceEE7pointerEv
FNDA:1,_ZNK7testing8internal11ThreadLocalIPNS_8SequenceEE3getEv
FNDA:1,_ZN7testing8internal11ThreadLocalIPNS_8SequenceEE11ValueHolder7pointerEv
FNDA:1,_ZNK7testing8internal11ThreadLocalIPNS_8SequenceEE16GetOrCreateValueEv
FNDA:0,_ZN7testing8internal8GTestLog9GetStreamEv
FNF:12
FNH:10
DA:967,0
DA:1065,1
DA:1066,1
DA:1116,0
DA:1118,0
DA:1124,0
DA:1619,18
DA:1620,18
DA:1621,18
DA:1622,18
DA:1623,18
DA:1626,18
DA:1631,18
DA:1632,18
DA:1633,18
DA:1637,23
DA:1638,23
DA:1639,0
DA:1640,23
DA:1694,12
DA:1696,12
DA:1744,1
DA:1745,1
DA:1755,1
DA:1772,1
DA:1774,1
DA:1775,1
DA:1776,0
DA:1779,1
DA:1780,1
DA:1781,1
DA:1782,1
LF:32
LH:26
end_of_record
TN:
SF:/home/marco/Documents/Dev/TrabajoFinal/Software/include/SPI.h
FN:17,17,_ZN3SPIC2Ev
FNDA:1,_ZN3SPIC2Ev
FNF:1
FNH:1
DA:17,1
LF:1
LH:1
end_of_record
TN:
SF:/home/marco/Documents/Dev/TrabajoFinal/Software/src/SPI.cpp
FN:24,37,_ZN3SPI9AddDeviceEPi
FN:39,58,_ZN3SPI11SendMessageEPhhS0_h
FN:4,22,_ZN3SPI5BeginEPi
FN:60,77,_ZN3SPI11SendMessageEPhh
FN:79,94,_ZN3SPI14debugTXmessageEPhh
FN:96,111,_ZN3SPI14debugRXmessageEPhh
FNDA:0,_ZN3SPI9AddDeviceEPi
FNDA:0,_ZN3SPI11SendMessageEPhhS0_h
FNDA:1,_ZN3SPI5BeginEPi
FNDA:0,_ZN3SPI11SendMessageEPhh
FNDA:0,_ZN3SPI14debugTXmessageEPhh
FNDA:0,_ZN3SPI14debugRXmessageEPhh
FNF:6
FNH:1
DA:4,1
DA:6,1
DA:9,0
DA:14,1
DA:17,0
DA:20,1
DA:21,1
DA:24,0
DA:29,0
DA:32,0
DA:36,0
DA:39,0
DA:42,0
DA:44,0
DA:45,0
DA:46,0
DA:47,0
DA:48,0
DA:50,0
DA:53,0
DA:55,0
DA:56,0
DA:57,0
DA:60,0
DA:63,0
DA:65,0
DA:66,0
DA:67,0
DA:68,0
DA:70,0
DA:73,0
DA:75,0
DA:76,0
DA:79,0
DA:82,0
DA:83,0
DA:84,0
DA:85,0
DA:88,0
DA:89,0
DA:94,0
DA:96,0
DA:99,0
DA:101,0
DA:102,0
DA:105,0
DA:106,0
DA:111,0
LF:48
LH:5
end_of_record
TN:
SF:/home/marco/Documents/Dev/TrabajoFinal/Software/test/test_native/include/spi_mock.cpp
FN:13,16,spi_bus_add_device
FN:18,21,spi_device_polling_transmit
FN:8,11,spi_bus_initialize
FNDA:0,spi_bus_add_device
FNDA:0,spi_device_polling_transmit
FNDA:2,spi_bus_initialize
FNF:3
FNH:1
DA:8,2
DA:10,2
DA:13,0
DA:15,0
DA:18,0
DA:20,0
LF:6
LH:2
end_of_record
TN:
SF:/home/marco/Documents/Dev/TrabajoFinal/Software/test/test_native/include/spi_mock.hpp
FN:49,49,_ZN12spifunctionsD0Ev
FN:49,49,_ZN12spifunctionsD2Ev
FN:58,58,_ZN7SPIMock18spi_bus_initializeEiPKii
FN:58,58,_ZN7SPIMock24gmock_spi_bus_initializeERKN7testing7MatcherIiEERKNS1_IPKiEES4_
FN:59,59,_ZN7SPIMock18spi_bus_add_deviceEiPKiPi
FN:60,60,_ZN7SPIMock27spi_device_polling_transmitEiP17spi_transaction_t
FNDA:0,_ZN12spifunctionsD0Ev
FNDA:1,_ZN12spifunctionsD2Ev
FNDA:1,_ZN7SPIMock18spi_bus_initializeEiPKii
FNDA:1,_ZN7SPIMock24gmock_spi_bus_initializeERKN7testing7MatcherIiEERKNS1_IPKiEES4_
FNDA:0,_ZN7SPIMock18spi_bus_add_deviceEiPKiPi
FNDA:0,_ZN7SPIMock27spi_device_polling_transmitEiP17spi_transaction_t
FNF:6
FNH:3
DA:49,1
DA:58,2
DA:59,0
DA:60,0
LF:4
LH:2
end_of_record
TN:
SF:/home/marco/Documents/Dev/TrabajoFinal/Software/test/test_native/src/test_main.cpp
FN:21,26,main
FNDA:2,main
FNF:1
FNH:1
DA:21,2
DA:23,2
DA:24,2
DA:25,2
LF:4
LH:4
end_of_record
TN:
SF:/home/marco/Documents/Dev/TrabajoFinal/Software/test/test_native/src/test_spi.cpp
FN:22,27,_ZN8SPITests11SPIAPIsTest5SetUpEv
FN:29,33,_ZN8SPITests11SPIAPIsTest8TearDownEv
FN:36,36,_ZN8SPITests33SPIAPIsTest_TestConfigureSPI_Test8TestBodyEv
FN:36,36,_ZN8SPITests33SPIAPIsTest_TestConfigureSPI_TestC2Ev
FN:36,36,_ZN8SPITests33SPIAPIsTest_TestConfigureSPI_TestD0Ev
FN:36,36,_ZN8SPITests33SPIAPIsTest_TestConfigureSPI_TestD2Ev
FNDA:1,_ZN8SPITests11SPIAPIsTest5SetUpEv
FNDA:1,_ZN8SPITests11SPIAPIsTest8TearDownEv
FNDA:1,_ZN8SPITests33SPIAPIsTest_TestConfigureSPI_Test8TestBodyEv
FNDA:1,_ZN8SPITests33SPIAPIsTest_TestConfigureSPI_TestC2Ev
FNDA:1,_ZN8SPITests33SPIAPIsTest_TestConfigureSPI_TestD0Ev
FNDA:1,_ZN8SPITests33SPIAPIsTest_TestConfigureSPI_TestD2Ev
FNF:6
FNH:6
DA:22,1
DA:25,1
DA:26,1
DA:27,1
DA:29,1
DA:32,1
DA:33,1
DA:36,4
DA:43,1
DA:44,1
DA:45,1
DA:46,1
DA:47,1
DA:48,1
DA:49,1
DA:56,2
DA:57,1
DA:58,1
DA:64,1
DA:66,1
DA:67,1
DA:68,0
DA:70,1
DA:71,1
LF:24
LH:23
end_of_record
TN:
SF:/usr/include/c++/13.2.1/bits/alloc_traits.h
FNF:0
FNH:0
DA:482,4
DA:517,4
DA:538,2
DA:542,2
DA:562,0
DA:574,4
DA:588,3
DA:661,2
DA:675,2
DA:773,3
DA:790,3
DA:792,3
DA:948,7
DA:949,7
LF:14
LH:13
end_of_record
TN:
SF:/usr/include/c++/13.2.1/bits/allocated_ptr.h
FN:53,55,_ZNSt15__allocated_ptrISaISt23_Sp_counted_ptr_inplaceIN7testing10OnceActionIFiiPKiiEE23IgnoreIncomingArgumentsINS1_8internal12ReturnActionIiE4ImplIiEEEESaIvELN9__gnu_cxx12_Lock_policyE2EEEEC2ERSI_PSH_
FN:53,55,_ZNSt15__allocated_ptrISaISt23_Sp_counted_ptr_inplaceIN7testing10OnceActionIFiiPKiiEEESaIvELN9__gnu_cxx12_Lock_policyE2EEEEC2ERSB_PSA_
FN:71,75,_ZNSt15__allocated_ptrISaISt23_Sp_counted_ptr_inplaceIN7testing10OnceActionIFiiPKiiEE23IgnoreIncomingArgumentsINS1_8internal12ReturnActionIiE4ImplIiEEEESaIvELN9__gnu_cxx12_Lock_policyE2EEEED2Ev
FN:71,75,_ZNSt15__allocated_ptrISaISt23_Sp_counted_ptr_inplaceIN7testing10OnceActionIFiiPKiiEEESaIvELN9__gnu_cxx12_Lock_policyE2EEEED2Ev
FN:79,83,_ZNSt15__allocated_ptrISaISt23_Sp_counted_ptr_inplaceIN7testing10OnceActionIFiiPKiiEE23IgnoreIncomingArgumentsINS1_8internal12ReturnActionIiE4ImplIiEEEESaIvELN9__gnu_cxx12_Lock_policyE2EEEEaSEDn
FN:79,83,_ZNSt15__allocated_ptrISaISt23_Sp_counted_ptr_inplaceIN7testing10OnceActionIFiiPKiiEEESaIvELN9__gnu_cxx12_Lock_policyE2EEEEaSEDn
FN:86,86,_ZNSt15__allocated_ptrISaISt23_Sp_counted_ptr_inplaceIN7testing10OnceActionIFiiPKiiEE23IgnoreIncomingArgumentsINS1_8internal12ReturnActionIiE4ImplIiEEEESaIvELN9__gnu_cxx12_Lock_policyE2EEEE3getEv
FN:86,86,_ZNSt15__allocated_ptrISaISt23_Sp_counted_ptr_inplaceIN7testing10OnceActionIFiiPKiiEEESaIvELN9__gnu_cxx12_Lock_policyE2EEEE3getEv
FN:96,99,_ZSt18__allocate_guardedISaISt23_Sp_counted_ptr_inplaceIN7testing10OnceActionIFiiPKiiEE23IgnoreIncomingArgumentsINS1_8internal12ReturnActionIiE4ImplIiEEEESaIvELN9__gnu_cxx12_Lock_policyE2EEEESt15__allocated_ptrIT_ERSK_
FN:96,99,_ZSt18__allocate_guardedISaISt23_Sp_counted_ptr_inplaceIN7testing10OnceActionIFiiPKiiEEESaIvELN9__gnu_cxx12_Lock_policyE2EEEESt15__allocated_ptrIT_ERSD_
FNDA:2,_ZNSt15__allocated_ptrISaISt23_Sp_counted_ptr_inplaceIN7testing10OnceActionIFiiPKiiEE23IgnoreIncomingArgumentsINS1_8internal12ReturnActionIiE4ImplIiEEEESaIvELN9__gnu_cxx12_Lock_policyE2EEEEC2ERSI_PSH_
FNDA:2,_ZNSt15__allocated_ptrISaISt23_Sp_counted_ptr_inplaceIN7testing10OnceActionIFiiPKiiEEESaIvELN9__gnu_cxx12_Lock_policyE2EEEEC2ERSB_PSA_
FNDA:2,_ZNSt15__allocated_ptrISaISt23_Sp_counted_ptr_inplaceIN7testing10OnceActionIFiiPKiiEE23IgnoreIncomingArgumentsINS1_8internal12ReturnActionIiE4ImplIiEEEESaIvELN9__gnu_cxx12_Lock_policyE2EEEED2Ev
FNDA:2,_ZNSt15__allocated_ptrISaISt23_Sp_counted_ptr_inplaceIN7testing10OnceActionIFiiPKiiEEESaIvELN9__gnu_cxx12_Lock_policyE2EEEED2Ev
FNDA:1,_ZNSt15__allocated_ptrISaISt23_Sp_counted_ptr_inplaceIN7testing10OnceActionIFiiPKiiEE23IgnoreIncomingArgumentsINS1_8internal12ReturnActionIiE4ImplIiEEEESaIvELN9__gnu_cxx12_Lock_policyE2EEEEaSEDn
FNDA:1,_ZNSt15__allocated_ptrISaISt23_Sp_counted_ptr_inplaceIN7testing10OnceActionIFiiPKiiEEESaIvELN9__gnu_cxx12_Lock_policyE2EEEEaSEDn
FNDA:1,_ZNSt15__allocated_ptrISaISt23_Sp_counted_ptr_inplaceIN7testing10OnceActionIFiiPKiiEE23IgnoreIncomingArgumentsINS1_8internal12ReturnActionIiE4ImplIiEEEESaIvELN9__gnu_cxx12_Lock_policyE2EEEE3getEv
FNDA:1,_ZNSt15__allocated_ptrISaISt23_Sp_counted_ptr_inplaceIN7testing10OnceActionIFiiPKiiEEESaIvELN9__gnu_cxx12_Lock_policyE2EEEE3getEv
FNDA:1,_ZSt18__allocate_guardedISaISt23_Sp_counted_ptr_inplaceIN7testing10OnceActionIFiiPKiiEE23IgnoreIncomingArgumentsINS1_8internal12ReturnActionIiE4ImplIiEEEESaIvELN9__gnu_cxx12_Lock_policyE2EEEESt15__allocated_ptrIT_ERSK_
FNDA:1,_ZSt18__allocate_guardedISaISt23_Sp_counted_ptr_inplaceIN7testing10OnceActionIFiiPKiiEEESaIvELN9__gnu_cxx12_Lock_policyE2EEEESt15__allocated_ptrIT_ERSD_
FNF:10
FNH:10
DA:53,4
DA:54,4
DA:55,4
DA:71,4
DA:73,4
DA:74,2
DA:75,4
DA:79,2
DA:81,2
DA:82,2
DA:86,2
DA:96,2
DA:98,2
LF:13
LH:13
end_of_record
TN:
SF:/usr/include/c++/13.2.1/bits/allocator.h
FNF:0
FNH:0
DA:163,12
DA:168,3
DA:178,4
DA:184,14
DA:217,0
LF:5
LH:4
end_of_record
TN:
SF:/usr/include/c++/13.2.1/bits/atomic_base.h
FNF:0
FNH:0
DA:635,0
DA:645,0
LF:2
LH:0
end_of_record
TN:
SF:/usr/include/c++/13.2.1/bits/basic_string.h
FN:3528,3541,_ZSt12__str_concatINSt7__cxx1112basic_stringIcSt11char_traitsIcESaIcEEEET_PKNS6_10value_typeENS6_9size_typeES9_SA_RKNS6_14allocator_typeE
FN:3607,3615,_ZStplIcSt11char_traitsIcESaIcEENSt7__cxx1112basic_stringIT_T0_T1_EERKS8_PKS5_
FN:3651,3669,_ZStplIcSt11char_traitsIcESaIcEENSt7__cxx1112basic_stringIT_T0_T1_EEOS8_S9_
FN:3674,3676,_ZStplIcSt11char_traitsIcESaIcEENSt7__cxx1112basic_stringIT_T0_T1_EEPKS5_OS8_
FN:3688,3690,_ZStplIcSt11char_traitsIcESaIcEENSt7__cxx1112basic_stringIT_T0_T1_EEOS8_PKS5_
FN:3727,3732,_ZSteqIcSt11char_traitsIcESaIcEEbRKNSt7__cxx1112basic_stringIT_T0_T1_EEPKS5_
FN:3815,3817,_ZStneIcSt11char_traitsIcESaIcEEbRKNSt7__cxx1112basic_stringIT_T0_T1_EEPKS5_
FNDA:3,_ZSt12__str_concatINSt7__cxx1112basic_stringIcSt11char_traitsIcESaIcEEEET_PKNS6_10value_typeENS6_9size_typeES9_SA_RKNS6_14allocator_typeE
FNDA:3,_ZStplIcSt11char_traitsIcESaIcEENSt7__cxx1112basic_stringIT_T0_T1_EERKS8_PKS5_
FNDA:1,_ZStplIcSt11char_traitsIcESaIcEENSt7__cxx1112basic_stringIT_T0_T1_EEOS8_S9_
FNDA:0,_ZStplIcSt11char_traitsIcESaIcEENSt7__cxx1112basic_stringIT_T0_T1_EEPKS5_OS8_
FNDA:19,_ZStplIcSt11char_traitsIcESaIcEENSt7__cxx1112basic_stringIT_T0_T1_EEOS8_PKS5_
FNDA:8,_ZSteqIcSt11char_traitsIcESaIcEEbRKNSt7__cxx1112basic_stringIT_T0_T1_EEPKS5_
FNDA:1,_ZStneIcSt11char_traitsIcESaIcEEbRKNSt7__cxx1112basic_stringIT_T0_T1_EEPKS5_
FNF:7
FNH:6
DA:355,0
DA:3528,3
DA:3536,3
DA:3537,3
DA:3538,3
DA:3539,3
DA:3540,3
DA:3541,0
DA:3607,3
DA:3614,6
DA:3651,1
DA:3656,1
DA:3657,1
DA:3658,1
DA:3659,0
DA:3660,0
DA:3661,1
DA:3664,1
DA:3665,1
DA:3666,0
DA:3668,1
DA:3674,0
DA:3676,0
DA:3688,19
DA:3690,19
DA:3727,8
DA:3730,8
DA:3731,8
DA:3815,1
DA:3817,1
LF:30
LH:23
end_of_record
TN:
SF:/usr/include/c++/13.2.1/bits/basic_string.tcc
FN:221,252,_ZNSt7__cxx1112basic_stringIcSt11char_traitsIcESaIcEE12_M_constructIPKcEEvT_S8_St20forward_iterator_tag
FN:221,252,_ZNSt7__cxx1112basic_stringIcSt11char_traitsIcESaIcEE12_M_constructIPcEEvT_S7_St20forward_iterator_tag
FN:239,239,_ZZNSt7__cxx1112basic_stringIcSt11char_traitsIcESaIcEE12_M_constructIPKcEEvT_S8_St20forward_iterator_tagEN6_GuardC2EPS4_
FN:239,239,_ZZNSt7__cxx1112basic_stringIcSt11char_traitsIcESaIcEE12_M_constructIPcEEvT_S7_St20forward_iterator_tagEN6_GuardC2EPS4_
FN:242,242,_ZZNSt7__cxx1112basic_stringIcSt11char_traitsIcESaIcEE12_M_constructIPKcEEvT_S8_St20forward_iterator_tagEN6_GuardD2Ev
FN:242,242,_ZZNSt7__cxx1112basic_stringIcSt11char_traitsIcESaIcEE12_M_constructIPcEEvT_S7_St20forward_iterator_tagEN6_GuardD2Ev
FNDA:0,_ZNSt7__cxx1112basic_stringIcSt11char_traitsIcESaIcEE12_M_constructIPKcEEvT_S8_St20forward_iterator_tag
FNDA:0,_ZNSt7__cxx1112basic_stringIcSt11char_traitsIcESaIcEE12_M_constructIPcEEvT_S7_St20forward_iterator_tag
FNDA:0,_ZZNSt7__cxx1112basic_stringIcSt11char_traitsIcESaIcEE12_M_constructIPKcEEvT_S8_St20forward_iterator_tagEN6_GuardC2EPS4_
FNDA:0,_ZZNSt7__cxx1112basic_stringIcSt11char_traitsIcESaIcEE12_M_constructIPcEEvT_S7_St20forward_iterator_tagEN6_GuardC2EPS4_
FNDA:0,_ZZNSt7__cxx1112basic_stringIcSt11char_traitsIcESaIcEE12_M_constructIPKcEEvT_S8_St20forward_iterator_tagEN6_GuardD2Ev
FNDA:0,_ZZNSt7__cxx1112basic_stringIcSt11char_traitsIcESaIcEE12_M_constructIPcEEvT_S7_St20forward_iterator_tagEN6_GuardD2Ev
FNF:6
FNH:0
DA:221,0
DA:225,0
DA:227,0
DA:229,0
DA:230,0
DA:239,0
DA:242,0
DA:245,0
DA:247,0
DA:249,0
DA:251,0
DA:252,0
LF:12
LH:0
end_of_record
TN:
SF:/usr/include/c++/13.2.1/bits/char_traits.h
FN:374,390,_ZNSt11char_traitsIcE7compareEPKcS2_m
FN:393,400,_ZNSt11char_traitsIcE6lengthEPKc
FN:427,436,_ZNSt11char_traitsIcE4copyEPcPKcm
FNDA:2,_ZNSt11char_traitsIcE7compareEPKcS2_m
FNDA:11,_ZNSt11char_traitsIcE6lengthEPKc
FNDA:0,_ZNSt11char_traitsIcE4copyEPcPKcm
FNF:3
FNH:2
DA:374,2
DA:376,2
DA:377,2
DA:389,0
DA:393,11
DA:399,11
DA:427,0
DA:429,0
DA:430,0
DA:435,0
LF:10
LH:5
end_of_record
TN:
SF:/usr/include/c++/13.2.1/bits/cpp_type_traits.h
FN:607,608,_ZSt12__miter_baseIPPKvET_S3_
FNDA:0,_ZSt12__miter_baseIPPKvET_S3_
FNF:1
FNH:0
DA:607,0
DA:608,0
LF:2
LH:0
end_of_record
TN:
SF:/usr/include/c++/13.2.1/bits/invoke.h
FN:129,140,_ZSt10__invoke_rIiRN7testing10OnceActionIFiiPKiiEE18StdFunctionAdaptorINS5_23IgnoreIncomingArgumentsINS0_8internal12ReturnActionIiE4ImplIiEEEEEEJiS3_iEENSt9enable_ifIXntsrSt7is_voidIT_E5valueESI_E4typeEOT0_DpOT1_
FN:129,140,_ZSt10__invoke_rIiRN7testing8internal16TypedExpectationIFiiPKiiEE13ActionAdaptorEJiS4_iEENSt9enable_ifIXntsrSt7is_voidIT_E5valueESB_E4typeEOT0_DpOT1_
FN:145,152,_ZSt10__invoke_rIvRZN7testing8internal14FunctionMockerIFiiP17spi_transaction_tEE10InvokeWithEOSt5tupleIJiS4_EEEUlvE0_JEENSt9enable_ifIXsrSt7is_voidIT_E5valueESE_E4typeEOT0_DpOT1_
FN:145,152,_ZSt10__invoke_rIvRZN7testing8internal14FunctionMockerIFiiP17spi_transaction_tEE10InvokeWithEOSt5tupleIJiS4_EEEUlvE_JEENSt9enable_ifIXsrSt7is_voidIT_E5valueESE_E4typeEOT0_DpOT1_
FN:145,152,_ZSt10__invoke_rIvRZN7testing8internal14FunctionMockerIFiiPKiPiEE10InvokeWithEOSt5tupleIJiS4_S5_EEEUlvE0_JEENSt9enable_ifIXsrSt7is_voidIT_E5valueESF_E4typeEOT0_DpOT1_
FN:145,152,_ZSt10__invoke_rIvRZN7testing8internal14FunctionMockerIFiiPKiPiEE10InvokeWithEOSt5tupleIJiS4_S5_EEEUlvE_JEENSt9enable_ifIXsrSt7is_voidIT_E5valueESF_E4typeEOT0_DpOT1_
FN:145,152,_ZSt10__invoke_rIvRZN7testing8internal14FunctionMockerIFiiPKiiEE10InvokeWithEOSt5tupleIJiS4_iEEEUlvE0_JEENSt9enable_ifIXsrSt7is_voidIT_E5valueESE_E4typeEOT0_DpOT1_
FN:145,152,_ZSt10__invoke_rIvRZN7testing8internal14FunctionMockerIFiiPKiiEE10InvokeWithEOSt5tupleIJiS4_iEEEUlvE_JEENSt9enable_ifIXsrSt7is_voidIT_E5valueESE_E4typeEOT0_DpOT1_
FN:60,61,_ZSt13__invoke_implIiRN7testing10OnceActionIFiiPKiiEE18StdFunctionAdaptorINS5_23IgnoreIncomingArgumentsINS0_8internal12ReturnActionIiE4ImplIiEEEEEEJiS3_iEET_St14__invoke_otherOT0_DpOT1_
FN:60,61,_ZSt13__invoke_implIiRN7testing8internal16TypedExpectationIFiiPKiiEE13ActionAdaptorEJiS4_iEET_St14__invoke_otherOT0_DpOT1_
FN:60,61,_ZSt13__invoke_implIvRZN7testing8internal14FunctionMockerIFiiP17spi_transaction_tEE10InvokeWithEOSt5tupleIJiS4_EEEUlvE0_JEET_St14__invoke_otherOT0_DpOT1_
FN:60,61,_ZSt13__invoke_implIvRZN7testing8internal14FunctionMockerIFiiP17spi_transaction_tEE10InvokeWithEOSt5tupleIJiS4_EEEUlvE_JEET_St14__invoke_otherOT0_DpOT1_
FN:60,61,_ZSt13__invoke_implIvRZN7testing8internal14FunctionMockerIFiiPKiPiEE10InvokeWithEOSt5tupleIJiS4_S5_EEEUlvE0_JEET_St14__invoke_otherOT0_DpOT1_
FN:60,61,_ZSt13__invoke_implIvRZN7testing8internal14FunctionMockerIFiiPKiPiEE10InvokeWithEOSt5tupleIJiS4_S5_EEEUlvE_JEET_St14__invoke_otherOT0_DpOT1_
FN:60,61,_ZSt13__invoke_implIvRZN7testing8internal14FunctionMockerIFiiPKiiEE10InvokeWithEOSt5tupleIJiS4_iEEEUlvE0_JEET_St14__invoke_otherOT0_DpOT1_
FN:60,61,_ZSt13__invoke_implIvRZN7testing8internal14FunctionMockerIFiiPKiiEE10InvokeWithEOSt5tupleIJiS4_iEEEUlvE_JEET_St14__invoke_otherOT0_DpOT1_
FNDA:1,_ZSt10__invoke_rIiRN7testing10OnceActionIFiiPKiiEE18StdFunctionAdaptorINS5_23IgnoreIncomingArgumentsINS0_8internal12ReturnActionIiE4ImplIiEEEEEEJiS3_iEENSt9enable_ifIXntsrSt7is_voidIT_E5valueESI_E4typeEOT0_DpOT1_
FNDA:1,_ZSt10__invoke_rIiRN7testing8internal16TypedExpectationIFiiPKiiEE13ActionAdaptorEJiS4_iEENSt9enable_ifIXntsrSt7is_voidIT_E5valueESB_E4typeEOT0_DpOT1_
FNDA:0,_ZSt10__invoke_rIvRZN7testing8internal14FunctionMockerIFiiP17spi_transaction_tEE10InvokeWithEOSt5tupleIJiS4_EEEUlvE0_JEENSt9enable_ifIXsrSt7is_voidIT_E5valueESE_E4typeEOT0_DpOT1_
FNDA:0,_ZSt10__invoke_rIvRZN7testing8internal14FunctionMockerIFiiP17spi_transaction_tEE10InvokeWithEOSt5tupleIJiS4_EEEUlvE_JEENSt9enable_ifIXsrSt7is_voidIT_E5valueESE_E4typeEOT0_DpOT1_
FNDA:0,_ZSt10__invoke_rIvRZN7testing8internal14FunctionMockerIFiiPKiPiEE10InvokeWithEOSt5tupleIJiS4_S5_EEEUlvE0_JEENSt9enable_ifIXsrSt7is_voidIT_E5valueESF_E4typeEOT0_DpOT1_
FNDA:0,_ZSt10__invoke_rIvRZN7testing8internal14FunctionMockerIFiiPKiPiEE10InvokeWithEOSt5tupleIJiS4_S5_EEEUlvE_JEENSt9enable_ifIXsrSt7is_voidIT_E5valueESF_E4typeEOT0_DpOT1_
FNDA:0,_ZSt10__invoke_rIvRZN7testing8internal14FunctionMockerIFiiPKiiEE10InvokeWithEOSt5tupleIJiS4_iEEEUlvE0_JEENSt9enable_ifIXsrSt7is_voidIT_E5valueESE_E4typeEOT0_DpOT1_
FNDA:0,_ZSt10__invoke_rIvRZN7testing8internal14FunctionMockerIFiiPKiiEE10InvokeWithEOSt5tupleIJiS4_iEEEUlvE_JEENSt9enable_ifIXsrSt7is_voidIT_E5valueESE_E4typeEOT0_DpOT1_
FNDA:1,_ZSt13__invoke_implIiRN7testing10OnceActionIFiiPKiiEE18StdFunctionAdaptorINS5_23IgnoreIncomingArgumentsINS0_8internal12ReturnActionIiE4ImplIiEEEEEEJiS3_iEET_St14__invoke_otherOT0_DpOT1_
FNDA:1,_ZSt13__invoke_implIiRN7testing8internal16TypedExpectationIFiiPKiiEE13ActionAdaptorEJiS4_iEET_St14__invoke_otherOT0_DpOT1_
FNDA:0,_ZSt13__invoke_implIvRZN7testing8internal14FunctionMockerIFiiP17spi_transaction_tEE10InvokeWithEOSt5tupleIJiS4_EEEUlvE0_JEET_St14__invoke_otherOT0_DpOT1_
FNDA:0,_ZSt13__invoke_implIvRZN7testing8internal14FunctionMockerIFiiP17spi_transaction_tEE10InvokeWithEOSt5tupleIJiS4_EEEUlvE_JEET_St14__invoke_otherOT0_DpOT1_
FNDA:0,_ZSt13__invoke_implIvRZN7testing8internal14FunctionMockerIFiiPKiPiEE10InvokeWithEOSt5tupleIJiS4_S5_EEEUlvE0_JEET_St14__invoke_otherOT0_DpOT1_
FNDA:0,_ZSt13__invoke_implIvRZN7testing8internal14FunctionMockerIFiiPKiPiEE10InvokeWithEOSt5tupleIJiS4_S5_EEEUlvE_JEET_St14__invoke_otherOT0_DpOT1_
FNDA:0,_ZSt13__invoke_implIvRZN7testing8internal14FunctionMockerIFiiPKiiEE10InvokeWithEOSt5tupleIJiS4_iEEEUlvE0_JEET_St14__invoke_otherOT0_DpOT1_
FNDA:0,_ZSt13__invoke_implIvRZN7testing8internal14FunctionMockerIFiiPKiiEE10InvokeWithEOSt5tupleIJiS4_iEEEUlvE_JEET_St14__invoke_otherOT0_DpOT1_
FNF:16
FNH:4
DA:60,2
DA:61,2
DA:129,2
DA:138,2
DA:139,2
DA:145,0
DA:150,0
DA:152,0
LF:8
LH:5
end_of_record
TN:
SF:/usr/include/c++/13.2.1/bits/move.h
FN:189,200,_ZSt4swapIPFbRSt9_Any_dataRKS0_St18_Manager_operationEENSt9enable_ifIXsrSt6__and_IJSt6__not_ISt15__is_tuple_likeIT_EESt21is_move_constructibleISB_ESt18is_move_assignableISB_EEE5valueEvE4typeERSB_SL_
FN:189,200,_ZSt4swapIPFiRKSt9_Any_dataOiOPKiS3_EENSt9enable_ifIXsrSt6__and_IJSt6__not_ISt15__is_tuple_likeIT_EESt21is_move_constructibleISD_ESt18is_move_assignableISD_EEE5valueEvE4typeERSD_SN_
FN:189,200,_ZSt4swapISt9_Any_dataENSt9enable_ifIXsrSt6__and_IJSt6__not_ISt15__is_tuple_likeIT_EESt21is_move_constructibleIS5_ESt18is_move_assignableIS5_EEE5valueEvE4typeERS5_SF_
FN:51,52,_ZSt11__addressofIKZN7testing8internal14FunctionMockerIFiiP17spi_transaction_tEE10InvokeWithEOSt5tupleIJiS4_EEEUlvE_EPT_RSC_
FN:51,52,_ZSt11__addressofIKZN7testing8internal14FunctionMockerIFiiPKiPiEE10InvokeWithEOSt5tupleIJiS4_S5_EEEUlvE_EPT_RSD_
FN:51,52,_ZSt11__addressofIKZN7testing8internal14FunctionMockerIFiiPKiiEE10InvokeWithEOSt5tupleIJiS4_iEEEUlvE_EPT_RSC_
FN:51,52,_ZSt11__addressofISaISt23_Sp_counted_ptr_inplaceIN7testing10OnceActionIFiiPKiiEE23IgnoreIncomingArgumentsINS1_8internal12ReturnActionIiE4ImplIiEEEESaIvELN9__gnu_cxx12_Lock_policyE2EEEEPT_RSJ_
FN:51,52,_ZSt11__addressofISaISt23_Sp_counted_ptr_inplaceIN7testing10OnceActionIFiiPKiiEEESaIvELN9__gnu_cxx12_Lock_policyE2EEEEPT_RSC_
FN:51,52,_ZSt11__addressofISt10shared_ptrIN7testing8internal15ExpectationBaseEEEPT_RS5_
FN:70,71,_ZSt7forwardIN7testing10OnceActionIFiiPKiiEE18StdFunctionAdaptorINS5_23IgnoreIncomingArgumentsINS0_8internal12ReturnActionIiE4ImplIiEEEEEEEOT_RNSt16remove_referenceISF_E4typeE
FN:70,71,_ZSt7forwardIN7testing10OnceActionIFiiPKiiEE23IgnoreIncomingArgumentsINS0_8internal12ReturnActionIiE4ImplIiEEEEEOT_RNSt16remove_referenceISD_E4typeE
FN:70,71,_ZSt7forwardIN7testing10OnceActionIFiiPKiiEEEEOT_RNSt16remove_referenceIS6_E4typeE
FN:70,71,_ZSt7forwardIN7testing7MatcherIPKiEEEOT_RNSt16remove_referenceIS5_E4typeE
FN:70,71,_ZSt7forwardIN7testing7MatcherIiEEEOT_RNSt16remove_referenceIS3_E4typeE
FN:70,71,_ZSt7forwardIN7testing8internal12ReturnActionIiE4ImplIiEEEOT_RNSt16remove_referenceIS6_E4typeE
FN:70,71,_ZSt7forwardIN7testing8internal16TypedExpectationIFiiPKiiEE13ActionAdaptorEEOT_RNSt16remove_referenceIS8_E4typeE
FN:70,71,_ZSt7forwardIN7testing8internal9EqMatcherIiEEEOT_RNSt16remove_referenceIS4_E4typeE
FN:70,71,_ZSt7forwardIP17spi_transaction_tEOT_RNSt16remove_referenceIS2_E4typeE
FN:70,71,_ZSt7forwardIPKN7testing8internal11MatcherBaseIPKiEEEOT_RNSt16remove_referenceIS8_E4typeE
FN:70,71,_ZSt7forwardIPKN7testing8internal11MatcherBaseIRKSt5tupleIJiPKiiEEEEEOT_RNSt16remove_referenceISC_E4typeE
FN:70,71,_ZSt7forwardIPKN7testing8internal11MatcherBaseIiEEEOT_RNSt16remove_referenceIS6_E4typeE
FN:70,71,_ZSt7forwardIPKN7testing8internal15AnythingMatcherEEOT_RNSt16remove_referenceIS5_E4typeE
FN:70,71,_ZSt7forwardIPKN7testing8internal9EqMatcherIiEEEOT_RNSt16remove_referenceIS6_E4typeE
FN:70,71,_ZSt7forwardIPKiEOT_RNSt16remove_referenceIS2_E4typeE
FN:70,71,_ZSt7forwardIPKvEOT_RNSt16remove_referenceIS2_E4typeE
FN:70,71,_ZSt7forwardIPiEOT_RNSt16remove_referenceIS1_E4typeE
FN:70,71,_ZSt7forwardIRKN7testing10OnceActionIFiiPKiiEE18StdFunctionAdaptorINS5_23IgnoreIncomingArgumentsINS0_8internal12ReturnActionIiE4ImplIiEEEEEEEOT_RNSt16remove_referenceISH_E4typeE
FN:70,71,_ZSt7forwardIRKN7testing8internal15AnythingMatcherEEOT_RNSt16remove_referenceIS5_E4typeE
FN:70,71,_ZSt7forwardIRKN7testing8internal16TypedExpectationIFiiPKiiEE13ActionAdaptorEEOT_RNSt16remove_referenceISA_E4typeE
FN:70,71,_ZSt7forwardIRKSt10shared_ptrIN7testing8internal15ExpectationBaseEEEOT_RNSt16remove_referenceIS7_E4typeE
FN:70,71,_ZSt7forwardIRKSt8functionIFiiP17spi_transaction_tEEEOT_RNSt16remove_referenceIS7_E4typeE
FN:70,71,_ZSt7forwardIRKSt8functionIFiiPKiPiEEEOT_RNSt16remove_referenceIS8_E4typeE
FN:70,71,_ZSt7forwardIRKSt8functionIFiiPKiiEEEOT_RNSt16remove_referenceIS7_E4typeE
FN:70,71,_ZSt7forwardIRKZN7testing8internal14FunctionMockerIFiiP17spi_transaction_tEE10InvokeWithEOSt5tupleIJiS4_EEEUlvE0_EOT_RNSt16remove_referenceISD_E4typeE
FN:70,71,_ZSt7forwardIRKZN7testing8internal14FunctionMockerIFiiP17spi_transaction_tEE10InvokeWithEOSt5tupleIJiS4_EEEUlvE_EOT_RNSt16remove_referenceISD_E4typeE
FN:70,71,_ZSt7forwardIRKZN7testing8internal14FunctionMockerIFiiPKiPiEE10InvokeWithEOSt5tupleIJiS4_S5_EEEUlvE0_EOT_RNSt16remove_referenceISE_E4typeE
FN:70,71,_ZSt7forwardIRKZN7testing8internal14FunctionMockerIFiiPKiPiEE10InvokeWithEOSt5tupleIJiS4_S5_EEEUlvE_EOT_RNSt16remove_referenceISE_E4typeE
FN:70,71,_ZSt7forwardIRKZN7testing8internal14FunctionMockerIFiiPKiiEE10InvokeWithEOSt5tupleIJiS4_iEEEUlvE0_EOT_RNSt16remove_referenceISD_E4typeE
FN:70,71,_ZSt7forwardIRKZN7testing8internal14FunctionMockerIFiiPKiiEE10InvokeWithEOSt5tupleIJiS4_iEEEUlvE_EOT_RNSt16remove_referenceISD_E4typeE
FN:70,71,_ZSt7forwardIRN7testing10OnceActionIFiiPKiiEE18StdFunctionAdaptorINS5_23IgnoreIncomingArgumentsINS0_8internal12ReturnActionIiE4ImplIiEEEEEEEOT_RNSt16remove_referenceISG_E4typeE
FN:70,71,_ZSt7forwardIRN7testing8internal16TypedExpectationIFiiPKiiEE13ActionAdaptorEEOT_RNSt16remove_referenceIS9_E4typeE
FN:70,71,_ZSt7forwardIRZN7testing8internal14FunctionMockerIFiiP17spi_transaction_tEE10InvokeWithEOSt5tupleIJiS4_EEEUlvE0_EOT_RNSt16remove_referenceISC_E4typeE
FN:70,71,_ZSt7forwardIRZN7testing8internal14FunctionMockerIFiiP17spi_transaction_tEE10InvokeWithEOSt5tupleIJiS4_EEEUlvE_EOT_RNSt16remove_referenceISC_E4typeE
FN:70,71,_ZSt7forwardIRZN7testing8internal14FunctionMockerIFiiPKiPiEE10InvokeWithEOSt5tupleIJiS4_S5_EEEUlvE0_EOT_RNSt16remove_referenceISD_E4typeE
FN:70,71,_ZSt7forwardIRZN7testing8internal14FunctionMockerIFiiPKiPiEE10InvokeWithEOSt5tupleIJiS4_S5_EEEUlvE_EOT_RNSt16remove_referenceISD_E4typeE
FN:70,71,_ZSt7forwardIRZN7testing8internal14FunctionMockerIFiiPKiiEE10InvokeWithEOSt5tupleIJiS4_iEEEUlvE0_EOT_RNSt16remove_referenceISC_E4typeE
FN:70,71,_ZSt7forwardIRZN7testing8internal14FunctionMockerIFiiPKiiEE10InvokeWithEOSt5tupleIJiS4_iEEEUlvE_EOT_RNSt16remove_referenceISC_E4typeE
FN:70,71,_ZSt7forwardISt10shared_ptrIN7testing8internal15ExpectationBaseEEEOT_RNSt16remove_referenceIS5_E4typeE
FN:70,71,_ZSt7forwardISt5tupleIJiP17spi_transaction_tEEEOT_RNSt16remove_referenceIS4_E4typeE
FN:70,71,_ZSt7forwardISt5tupleIJiPKiPiEEEOT_RNSt16remove_referenceIS5_E4typeE
FN:70,71,_ZSt7forwardISt5tupleIJiPKiiEEEOT_RNSt16remove_referenceIS4_E4typeE
FN:70,71,_ZSt7forwardIZN7testing8internal14FunctionMockerIFiiP17spi_transaction_tEE10InvokeWithEOSt5tupleIJiS4_EEEUlvE0_EOT_RNSt16remove_referenceISB_E4typeE
FN:70,71,_ZSt7forwardIZN7testing8internal14FunctionMockerIFiiP17spi_transaction_tEE10InvokeWithEOSt5tupleIJiS4_EEEUlvE_EOT_RNSt16remove_referenceISB_E4typeE
FN:70,71,_ZSt7forwardIZN7testing8internal14FunctionMockerIFiiPKiPiEE10InvokeWithEOSt5tupleIJiS4_S5_EEEUlvE0_EOT_RNSt16remove_referenceISC_E4typeE
FN:70,71,_ZSt7forwardIZN7testing8internal14FunctionMockerIFiiPKiPiEE10InvokeWithEOSt5tupleIJiS4_S5_EEEUlvE_EOT_RNSt16remove_referenceISC_E4typeE
FN:70,71,_ZSt7forwardIZN7testing8internal14FunctionMockerIFiiPKiiEE10InvokeWithEOSt5tupleIJiS4_iEEEUlvE0_EOT_RNSt16remove_referenceISB_E4typeE
FN:70,71,_ZSt7forwardIZN7testing8internal14FunctionMockerIFiiPKiiEE10InvokeWithEOSt5tupleIJiS4_iEEEUlvE_EOT_RNSt16remove_referenceISB_E4typeE
FN:70,71,_ZSt7forwardIiEOT_RNSt16remove_referenceIS0_E4typeE
FN:97,98,_ZSt4moveIRN7testing10OnceActionIFiiPKiiEE23IgnoreIncomingArgumentsINS0_8internal12ReturnActionIiE4ImplIiEEEEEONSt16remove_referenceIT_E4typeEOSF_
FN:97,98,_ZSt4moveIRN7testing10OnceActionIFiiPKiiEEEEONSt16remove_referenceIT_E4typeEOS8_
FN:97,98,_ZSt4moveIRN7testing6ActionIFiiPKiiEEEEONSt16remove_referenceIT_E4typeEOS8_
FN:97,98,_ZSt4moveIRN7testing7MatcherIPKiEEEONSt16remove_referenceIT_E4typeEOS7_
FN:97,98,_ZSt4moveIRN7testing7MatcherIiEEEONSt16remove_referenceIT_E4typeEOS5_
FN:97,98,_ZSt4moveIRN7testing8internal12ReturnActionIiE4ImplIiEEEONSt16remove_referenceIT_E4typeEOS8_
FN:97,98,_ZSt4moveIRNSt7__cxx1112basic_stringIcSt11char_traitsIcESaIcEEEEONSt16remove_referenceIT_E4typeEOS8_
FN:97,98,_ZSt4moveIRPFbRSt9_Any_dataRKS0_St18_Manager_operationEEONSt16remove_referenceIT_E4typeEOS9_
FN:97,98,_ZSt4moveIRPFiRKSt9_Any_dataOiOPKiS3_EEONSt16remove_referenceIT_E4typeEOSB_
FN:97,98,_ZSt4moveIRPKvEONSt16remove_referenceIT_E4typeEOS4_
FN:97,98,_ZSt4moveIRPNSt7__cxx1112basic_stringIcSt11char_traitsIcESaIcEEEEONSt16remove_referenceIT_E4typeEOS9_
FN:97,98,_ZSt4moveIRPNSt7__cxx1118basic_stringstreamIcSt11char_traitsIcESaIcEEEEONSt16remove_referenceIT_E4typeEOS9_
FN:97,98,_ZSt4moveIRPPKvEONSt16remove_referenceIT_E4typeEOS5_
FN:97,98,_ZSt4moveIRPSt10shared_ptrIN7testing8internal15ExpectationBaseEEEONSt16remove_referenceIT_E4typeEOS8_
FN:97,98,_ZSt4moveIRSaIcEEONSt16remove_referenceIT_E4typeEOS3_
FN:97,98,_ZSt4moveIRSt10shared_ptrIN7testing10OnceActionIFiiPKiiEE23IgnoreIncomingArgumentsINS1_8internal12ReturnActionIiE4ImplIiEEEEEEONSt16remove_referenceIT_E4typeEOSH_
FN:97,98,_ZSt4moveIRSt10shared_ptrIN7testing10OnceActionIFiiPKiiEEEEEONSt16remove_referenceIT_E4typeEOSA_
FN:97,98,_ZSt4moveIRSt10shared_ptrIN7testing8internal15ExpectationBaseEEEONSt16remove_referenceIT_E4typeEOS7_
FN:97,98,_ZSt4moveIRSt5tupleIJiP17spi_transaction_tEEEONSt16remove_referenceIT_E4typeEOS6_
FN:97,98,_ZSt4moveIRSt5tupleIJiPKiPiEEEONSt16remove_referenceIT_E4typeEOS7_
FN:97,98,_ZSt4moveIRSt5tupleIJiPKiiEEEONSt16remove_referenceIT_E4typeEOS6_
FN:97,98,_ZSt4moveIRSt8functionIFvvEEEONSt16remove_referenceIT_E4typeEOS5_
FN:97,98,_ZSt4moveIRSt9_Any_dataEONSt16remove_referenceIT_E4typeEOS3_
FN:97,98,_ZSt4moveIRiEONSt16remove_referenceIT_E4typeEOS2_
FNDA:1,_ZSt4swapIPFbRSt9_Any_dataRKS0_St18_Manager_operationEENSt9enable_ifIXsrSt6__and_IJSt6__not_ISt15__is_tuple_likeIT_EESt21is_move_constructibleISB_ESt18is_move_assignableISB_EEE5valueEvE4typeERSB_SL_
FNDA:1,_ZSt4swapIPFiRKSt9_Any_dataOiOPKiS3_EENSt9enable_ifIXsrSt6__and_IJSt6__not_ISt15__is_tuple_likeIT_EESt21is_move_constructibleISD_ESt18is_move_assignableISD_EEE5valueEvE4typeERSD_SN_
FNDA:1,_ZSt4swapISt9_Any_dataENSt9enable_ifIXsrSt6__and_IJSt6__not_ISt15__is_tuple_likeIT_EESt21is_move_constructibleIS5_ESt18is_move_assignableIS5_EEE5valueEvE4typeERS5_SF_
FNDA:0,_ZSt11__addressofIKZN7testing8internal14FunctionMockerIFiiP17spi_transaction_tEE10InvokeWithEOSt5tupleIJiS4_EEEUlvE_EPT_RSC_
FNDA:0,_ZSt11__addressofIKZN7testing8internal14FunctionMockerIFiiPKiPiEE10InvokeWithEOSt5tupleIJiS4_S5_EEEUlvE_EPT_RSD_
FNDA:0,_ZSt11__addressofIKZN7testing8internal14FunctionMockerIFiiPKiiEE10InvokeWithEOSt5tupleIJiS4_iEEEUlvE_EPT_RSC_
FNDA:2,_ZSt11__addressofISaISt23_Sp_counted_ptr_inplaceIN7testing10OnceActionIFiiPKiiEE23IgnoreIncomingArgumentsINS1_8internal12ReturnActionIiE4ImplIiEEEESaIvELN9__gnu_cxx12_Lock_policyE2EEEEPT_RSJ_
FNDA:2,_ZSt11__addressofISaISt23_Sp_counted_ptr_inplaceIN7testing10OnceActionIFiiPKiiEEESaIvELN9__gnu_cxx12_Lock_policyE2EEEEPT_RSC_
FNDA:1,_ZSt11__addressofISt10shared_ptrIN7testing8internal15ExpectationBaseEEEPT_RS5_
FNDA:3,_ZSt7forwardIN7testing10OnceActionIFiiPKiiEE18StdFunctionAdaptorINS5_23IgnoreIncomingArgumentsINS0_8internal12ReturnActionIiE4ImplIiEEEEEEEOT_RNSt16remove_referenceISF_E4typeE
FNDA:9,_ZSt7forwardIN7testing10OnceActionIFiiPKiiEE23IgnoreIncomingArgumentsINS0_8internal12ReturnActionIiE4ImplIiEEEEEOT_RNSt16remove_referenceISD_E4typeE
FNDA:7,_ZSt7forwardIN7testing10OnceActionIFiiPKiiEEEEOT_RNSt16remove_referenceIS6_E4typeE
FNDA:5,_ZSt7forwardIN7testing7MatcherIPKiEEEOT_RNSt16remove_referenceIS5_E4typeE
FNDA:10,_ZSt7forwardIN7testing7MatcherIiEEEOT_RNSt16remove_referenceIS3_E4typeE
FNDA:1,_ZSt7forwardIN7testing8internal12ReturnActionIiE4ImplIiEEEOT_RNSt16remove_referenceIS6_E4typeE
FNDA:6,_ZSt7forwardIN7testing8internal16TypedExpectationIFiiPKiiEE13ActionAdaptorEEOT_RNSt16remove_referenceIS8_E4typeE
FNDA:6,_ZSt7forwardIN7testing8internal9EqMatcherIiEEEOT_RNSt16remove_referenceIS4_E4typeE
FNDA:0,_ZSt7forwardIP17spi_transaction_tEOT_RNSt16remove_referenceIS2_E4typeE
FNDA:0,_ZSt7forwardIPKN7testing8internal11MatcherBaseIPKiEEEOT_RNSt16remove_referenceIS8_E4typeE
FNDA:0,_ZSt7forwardIPKN7testing8internal11MatcherBaseIRKSt5tupleIJiPKiiEEEEEOT_RNSt16remove_referenceISC_E4typeE
FNDA:0,_ZSt7forwardIPKN7testing8internal11MatcherBaseIiEEEOT_RNSt16remove_referenceIS6_E4typeE
FNDA:0,_ZSt7forwardIPKN7testing8internal15AnythingMatcherEEOT_RNSt16remove_referenceIS5_E4typeE
FNDA:0,_ZSt7forwardIPKN7testing8internal9EqMatcherIiEEEOT_RNSt16remove_referenceIS6_E4typeE
FNDA:18,_ZSt7forwardIPKiEOT_RNSt16remove_referenceIS2_E4typeE
FNDA:4,_ZSt7forwardIPKvEOT_RNSt16remove_referenceIS2_E4typeE
FNDA:0,_ZSt7forwardIPiEOT_RNSt16remove_referenceIS1_E4typeE
FNDA:0,_ZSt7forwardIRKN7testing10OnceActionIFiiPKiiEE18StdFunctionAdaptorINS5_23IgnoreIncomingArgumentsINS0_8internal12ReturnActionIiE4ImplIiEEEEEEEOT_RNSt16remove_referenceISH_E4typeE
FNDA:6,_ZSt7forwardIRKN7testing8internal15AnythingMatcherEEOT_RNSt16remove_referenceIS5_E4typeE
FNDA:2,_ZSt7forwardIRKN7testing8internal16TypedExpectationIFiiPKiiEE13ActionAdaptorEEOT_RNSt16remove_referenceISA_E4typeE
FNDA:3,_ZSt7forwardIRKSt10shared_ptrIN7testing8internal15ExpectationBaseEEEOT_RNSt16remove_referenceIS7_E4typeE
FNDA:0,_ZSt7forwardIRKSt8functionIFiiP17spi_transaction_tEEEOT_RNSt16remove_referenceIS7_E4typeE
FNDA:0,_ZSt7forwardIRKSt8functionIFiiPKiPiEEEOT_RNSt16remove_referenceIS8_E4typeE
FNDA:2,_ZSt7forwardIRKSt8functionIFiiPKiiEEEOT_RNSt16remove_referenceIS7_E4typeE
FNDA:0,_ZSt7forwardIRKZN7testing8internal14FunctionMockerIFiiP17spi_transaction_tEE10InvokeWithEOSt5tupleIJiS4_EEEUlvE0_EOT_RNSt16remove_referenceISD_E4typeE
FNDA:0,_ZSt7forwardIRKZN7testing8internal14FunctionMockerIFiiP17spi_transaction_tEE10InvokeWithEOSt5tupleIJiS4_EEEUlvE_EOT_RNSt16remove_referenceISD_E4typeE
FNDA:0,_ZSt7forwardIRKZN7testing8internal14FunctionMockerIFiiPKiPiEE10InvokeWithEOSt5tupleIJiS4_S5_EEEUlvE0_EOT_RNSt16remove_referenceISE_E4typeE
FNDA:0,_ZSt7forwardIRKZN7testing8internal14FunctionMockerIFiiPKiPiEE10InvokeWithEOSt5tupleIJiS4_S5_EEEUlvE_EOT_RNSt16remove_referenceISE_E4typeE
FNDA:0,_ZSt7forwardIRKZN7testing8internal14FunctionMockerIFiiPKiiEE10InvokeWithEOSt5tupleIJiS4_iEEEUlvE0_EOT_RNSt16remove_referenceISD_E4typeE
FNDA:0,_ZSt7forwardIRKZN7testing8internal14FunctionMockerIFiiPKiiEE10InvokeWithEOSt5tupleIJiS4_iEEEUlvE_EOT_RNSt16remove_referenceISD_E4typeE
FNDA:2,_ZSt7forwardIRN7testing10OnceActionIFiiPKiiEE18StdFunctionAdaptorINS5_23IgnoreIncomingArgumentsINS0_8internal12ReturnActionIiE4ImplIiEEEEEEEOT_RNSt16remove_referenceISG_E4typeE
FNDA:2,_ZSt7forwardIRN7testing8internal16TypedExpectationIFiiPKiiEE13ActionAdaptorEEOT_RNSt16remove_referenceIS9_E4typeE
FNDA:0,_ZSt7forwardIRZN7testing8internal14FunctionMockerIFiiP17spi_transaction_tEE10InvokeWithEOSt5tupleIJiS4_EEEUlvE0_EOT_RNSt16remove_referenceISC_E4typeE
FNDA:0,_ZSt7forwardIRZN7testing8internal14FunctionMockerIFiiP17spi_transaction_tEE10InvokeWithEOSt5tupleIJiS4_EEEUlvE_EOT_RNSt16remove_referenceISC_E4typeE
FNDA:0,_ZSt7forwardIRZN7testing8internal14FunctionMockerIFiiPKiPiEE10InvokeWithEOSt5tupleIJiS4_S5_EEEUlvE0_EOT_RNSt16remove_referenceISD_E4typeE
FNDA:0,_ZSt7forwardIRZN7testing8internal14FunctionMockerIFiiPKiPiEE10InvokeWithEOSt5tupleIJiS4_S5_EEEUlvE_EOT_RNSt16remove_referenceISD_E4typeE
FNDA:0,_ZSt7forwardIRZN7testing8internal14FunctionMockerIFiiPKiiEE10InvokeWithEOSt5tupleIJiS4_iEEEUlvE0_EOT_RNSt16remove_referenceISC_E4typeE
FNDA:0,_ZSt7forwardIRZN7testing8internal14FunctionMockerIFiiPKiiEE10InvokeWithEOSt5tupleIJiS4_iEEEUlvE_EOT_RNSt16remove_referenceISC_E4typeE
FNDA:0,_ZSt7forwardISt10shared_ptrIN7testing8internal15ExpectationBaseEEEOT_RNSt16remove_referenceIS5_E4typeE
FNDA:0,_ZSt7forwardISt5tupleIJiP17spi_transaction_tEEEOT_RNSt16remove_referenceIS4_E4typeE
FNDA:0,_ZSt7forwardISt5tupleIJiPKiPiEEEOT_RNSt16remove_referenceIS5_E4typeE
FNDA:4,_ZSt7forwardISt5tupleIJiPKiiEEEOT_RNSt16remove_referenceIS4_E4typeE
FNDA:0,_ZSt7forwardIZN7testing8internal14FunctionMockerIFiiP17spi_transaction_tEE10InvokeWithEOSt5tupleIJiS4_EEEUlvE0_EOT_RNSt16remove_referenceISB_E4typeE
FNDA:0,_ZSt7forwardIZN7testing8internal14FunctionMockerIFiiP17spi_transaction_tEE10InvokeWithEOSt5tupleIJiS4_EEEUlvE_EOT_RNSt16remove_referenceISB_E4typeE
FNDA:0,_ZSt7forwardIZN7testing8internal14FunctionMockerIFiiPKiPiEE10InvokeWithEOSt5tupleIJiS4_S5_EEEUlvE0_EOT_RNSt16remove_referenceISC_E4typeE
FNDA:0,_ZSt7forwardIZN7testing8internal14FunctionMockerIFiiPKiPiEE10InvokeWithEOSt5tupleIJiS4_S5_EEEUlvE_EOT_RNSt16remove_referenceISC_E4typeE
FNDA:0,_ZSt7forwardIZN7testing8internal14FunctionMockerIFiiPKiiEE10InvokeWithEOSt5tupleIJiS4_iEEEUlvE0_EOT_RNSt16remove_referenceISB_E4typeE
FNDA:0,_ZSt7forwardIZN7testing8internal14FunctionMockerIFiiPKiiEE10InvokeWithEOSt5tupleIJiS4_iEEEUlvE_EOT_RNSt16remove_referenceISB_E4typeE
FNDA:44,_ZSt7forwardIiEOT_RNSt16remove_referenceIS0_E4typeE
FNDA:1,_ZSt4moveIRN7testing10OnceActionIFiiPKiiEE23IgnoreIncomingArgumentsINS0_8internal12ReturnActionIiE4ImplIiEEEEEONSt16remove_referenceIT_E4typeEOSF_
FNDA:2,_ZSt4moveIRN7testing10OnceActionIFiiPKiiEEEEONSt16remove_referenceIT_E4typeEOS8_
FNDA:1,_ZSt4moveIRN7testing6ActionIFiiPKiiEEEEONSt16remove_referenceIT_E4typeEOS8_
FNDA:1,_ZSt4moveIRN7testing7MatcherIPKiEEEONSt16remove_referenceIT_E4typeEOS7_
FNDA:2,_ZSt4moveIRN7testing7MatcherIiEEEONSt16remove_referenceIT_E4typeEOS5_
FNDA:1,_ZSt4moveIRN7testing8internal12ReturnActionIiE4ImplIiEEEONSt16remove_referenceIT_E4typeEOS8_
FNDA:50,_ZSt4moveIRNSt7__cxx1112basic_stringIcSt11char_traitsIcESaIcEEEEONSt16remove_referenceIT_E4typeEOS8_
FNDA:3,_ZSt4moveIRPFbRSt9_Any_dataRKS0_St18_Manager_operationEEONSt16remove_referenceIT_E4typeEOS9_
FNDA:3,_ZSt4moveIRPFiRKSt9_Any_dataOiOPKiS3_EEONSt16remove_referenceIT_E4typeEOSB_
FNDA:1,_ZSt4moveIRPKvEONSt16remove_referenceIT_E4typeEOS4_
FNDA:0,_ZSt4moveIRPNSt7__cxx1112basic_stringIcSt11char_traitsIcESaIcEEEEONSt16remove_referenceIT_E4typeEOS9_
FNDA:54,_ZSt4moveIRPNSt7__cxx1118basic_stringstreamIcSt11char_traitsIcESaIcEEEEONSt16remove_referenceIT_E4typeEOS9_
FNDA:0,_ZSt4moveIRPPKvEONSt16remove_referenceIT_E4typeEOS5_
FNDA:0,_ZSt4moveIRPSt10shared_ptrIN7testing8internal15ExpectationBaseEEEONSt16remove_referenceIT_E4typeEOS8_
FNDA:0,_ZSt4moveIRSaIcEEONSt16remove_referenceIT_E4typeEOS3_
FNDA:1,_ZSt4moveIRSt10shared_ptrIN7testing10OnceActionIFiiPKiiEE23IgnoreIncomingArgumentsINS1_8internal12ReturnActionIiE4ImplIiEEEEEEONSt16remove_referenceIT_E4typeEOSH_
FNDA:1,_ZSt4moveIRSt10shared_ptrIN7testing10OnceActionIFiiPKiiEEEEEONSt16remove_referenceIT_E4typeEOSA_
FNDA:0,_ZSt4moveIRSt10shared_ptrIN7testing8internal15ExpectationBaseEEEONSt16remove_referenceIT_E4typeEOS7_
FNDA:0,_ZSt4moveIRSt5tupleIJiP17spi_transaction_tEEEONSt16remove_referenceIT_E4typeEOS6_
FNDA:0,_ZSt4moveIRSt5tupleIJiPKiPiEEEONSt16remove_referenceIT_E4typeEOS7_
FNDA:3,_ZSt4moveIRSt5tupleIJiPKiiEEEONSt16remove_referenceIT_E4typeEOS6_
FNDA:0,_ZSt4moveIRSt8functionIFvvEEEONSt16remove_referenceIT_E4typeEOS5_
FNDA:3,_ZSt4moveIRSt9_Any_dataEONSt16remove_referenceIT_E4typeEOS3_
FNDA:9,_ZSt4moveIRiEONSt16remove_referenceIT_E4typeEOS2_
FNF:82
FNH:40
DA:51,5
DA:52,5
DA:70,134
DA:71,134
DA:97,136
DA:98,136
DA:189,3
DA:197,3
DA:198,3
DA:199,3
DA:200,3
LF:11
LH:11
end_of_record
TN:
SF:/usr/include/c++/13.2.1/bits/new_allocator.h
FN:104,104,_ZNSt15__new_allocatorIPKvED2Ev
FN:104,104,_ZNSt15__new_allocatorISt13_Rb_tree_nodeIN7testing11ExpectationEEED2Ev
FN:104,104,_ZNSt15__new_allocatorISt23_Sp_counted_ptr_inplaceIN7testing10OnceActionIFiiPKiiEE23IgnoreIncomingArgumentsINS1_8internal12ReturnActionIiE4ImplIiEEEESaIvELN9__gnu_cxx12_Lock_policyE2EEED2Ev
FN:104,104,_ZNSt15__new_allocatorISt23_Sp_counted_ptr_inplaceIN7testing10OnceActionIFiiPKiiEEESaIvELN9__gnu_cxx12_Lock_policyE2EEED2Ev
FN:104,104,_ZNSt15__new_allocatorIcED2Ev
FN:126,152,_ZNSt15__new_allocatorIPKvE8allocateEmS1_
FN:126,152,_ZNSt15__new_allocatorISt10shared_ptrIN7testing8internal15ExpectationBaseEEE8allocateEmPKv
FN:126,152,_ZNSt15__new_allocatorISt23_Sp_counted_ptr_inplaceIN7testing10OnceActionIFiiPKiiEE23IgnoreIncomingArgumentsINS1_8internal12ReturnActionIiE4ImplIiEEEESaIvELN9__gnu_cxx12_Lock_policyE2EEE8allocateEmPKv
FN:126,152,_ZNSt15__new_allocatorISt23_Sp_counted_ptr_inplaceIN7testing10OnceActionIFiiPKiiEEESaIvELN9__gnu_cxx12_Lock_policyE2EEE8allocateEmPKv
FN:156,173,_ZNSt15__new_allocatorIPKvE10deallocateEPS1_m
FN:156,173,_ZNSt15__new_allocatorISt10shared_ptrIN7testing8internal15ExpectationBaseEEE10deallocateEPS4_m
FN:156,173,_ZNSt15__new_allocatorISt13_Rb_tree_nodeIN7testing11ExpectationEEE10deallocateEPS3_m
FN:156,173,_ZNSt15__new_allocatorISt23_Sp_counted_ptr_inplaceIN7testing10OnceActionIFiiPKiiEE23IgnoreIncomingArgumentsINS1_8internal12ReturnActionIiE4ImplIiEEEESaIvELN9__gnu_cxx12_Lock_policyE2EEE10deallocateEPSH_m
FN:156,173,_ZNSt15__new_allocatorISt23_Sp_counted_ptr_inplaceIN7testing10OnceActionIFiiPKiiEEESaIvELN9__gnu_cxx12_Lock_policyE2EEE10deallocateEPSA_m
FNDA:7,_ZNSt15__new_allocatorIPKvED2Ev
FNDA:1,_ZNSt15__new_allocatorISt13_Rb_tree_nodeIN7testing11ExpectationEEED2Ev
FNDA:2,_ZNSt15__new_allocatorISt23_Sp_counted_ptr_inplaceIN7testing10OnceActionIFiiPKiiEE23IgnoreIncomingArgumentsINS1_8internal12ReturnActionIiE4ImplIiEEEESaIvELN9__gnu_cxx12_Lock_policyE2EEED2Ev
FNDA:2,_ZNSt15__new_allocatorISt23_Sp_counted_ptr_inplaceIN7testing10OnceActionIFiiPKiiEEESaIvELN9__gnu_cxx12_Lock_policyE2EEED2Ev
FNDA:36,_ZNSt15__new_allocatorIcED2Ev
FNDA:1,_ZNSt15__new_allocatorIPKvE8allocateEmS1_
FNDA:1,_ZNSt15__new_allocatorISt10shared_ptrIN7testing8internal15ExpectationBaseEEE8allocateEmPKv
FNDA:1,_ZNSt15__new_allocatorISt23_Sp_counted_ptr_inplaceIN7testing10OnceActionIFiiPKiiEE23IgnoreIncomingArgumentsINS1_8internal12ReturnActionIiE4ImplIiEEEESaIvELN9__gnu_cxx12_Lock_policyE2EEE8allocateEmPKv
FNDA:1,_ZNSt15__new_allocatorISt23_Sp_counted_ptr_inplaceIN7testing10OnceActionIFiiPKiiEEESaIvELN9__gnu_cxx12_Lock_policyE2EEE8allocateEmPKv
FNDA:1,_ZNSt15__new_allocatorIPKvE10deallocateEPS1_m
FNDA:1,_ZNSt15__new_allocatorISt10shared_ptrIN7testing8internal15ExpectationBaseEEE10deallocateEPS4_m
FNDA:0,_ZNSt15__new_allocatorISt13_Rb_tree_nodeIN7testing11ExpectationEEE10deallocateEPS3_m
FNDA:1,_ZNSt15__new_allocatorISt23_Sp_counted_ptr_inplaceIN7testing10OnceActionIFiiPKiiEE23IgnoreIncomingArgumentsINS1_8internal12ReturnActionIiE4ImplIiEEEESaIvELN9__gnu_cxx12_Lock_policyE2EEE10deallocateEPSH_m
FNDA:1,_ZNSt15__new_allocatorISt23_Sp_counted_ptr_inplaceIN7testing10OnceActionIFiiPKiiEEESaIvELN9__gnu_cxx12_Lock_policyE2EEE10deallocateEPSA_m
FNF:14
FNH:13
DA:88,16
DA:92,3
DA:104,48
DA:126,4
DA:134,4
DA:138,0
DA:139,0
DA:140,0
DA:151,4
DA:156,4
DA:172,4
DA:173,4
DA:183,4
DA:191,2
DA:198,0
DA:233,8
LF:16
LH:12
end_of_record
TN:
SF:/usr/include/c++/13.2.1/bits/ptr_traits.h
FN:212,216,_ZSt12__to_addressISt23_Sp_counted_ptr_inplaceIN7testing10OnceActionIFiiPKiiEE23IgnoreIncomingArgumentsINS1_8internal12ReturnActionIiE4ImplIiEEEESaIvELN9__gnu_cxx12_Lock_policyE2EEEPT_SJ_
FN:212,216,_ZSt12__to_addressISt23_Sp_counted_ptr_inplaceIN7testing10OnceActionIFiiPKiiEEESaIvELN9__gnu_cxx12_Lock_policyE2EEEPT_SC_
FNDA:1,_ZSt12__to_addressISt23_Sp_counted_ptr_inplaceIN7testing10OnceActionIFiiPKiiEE23IgnoreIncomingArgumentsINS1_8internal12ReturnActionIiE4ImplIiEEEESaIvELN9__gnu_cxx12_Lock_policyE2EEEPT_SJ_
FNDA:1,_ZSt12__to_addressISt23_Sp_counted_ptr_inplaceIN7testing10OnceActionIFiiPKiiEEESaIvELN9__gnu_cxx12_Lock_policyE2EEEPT_SC_
FNF:2
FNH:2
DA:212,2
DA:215,2
LF:2
LH:2
end_of_record
TN:
SF:/usr/include/c++/13.2.1/bits/shared_ptr.h
FN:1005,1011,_ZSt11make_sharedIN7testing10OnceActionIFiiPKiiEE23IgnoreIncomingArgumentsINS0_8internal12ReturnActionIiE4ImplIiEEEEJSC_EESt10shared_ptrINSt9enable_ifIXntsrSt8is_arrayIT_E5valueESG_E4typeEEDpOT0_
FN:1005,1011,_ZSt11make_sharedIN7testing10OnceActionIFiiPKiiEEEJS5_EESt10shared_ptrINSt9enable_ifIXntsrSt8is_arrayIT_E5valueES9_E4typeEEDpOT0_
FN:204,204,_ZNSt10shared_ptrIN7testing10OnceActionIFiiPKiiEE23IgnoreIncomingArgumentsINS0_8internal12ReturnActionIiE4ImplIiEEEEEC2ERKSD_
FN:204,204,_ZNSt10shared_ptrIN7testing10OnceActionIFiiPKiiEEEEC2ERKS6_
FN:204,204,_ZNSt10shared_ptrIN7testing8internal12ReturnActionIiE4ImplIiE5StateEEC2ERKS7_
FN:204,204,_ZNSt10shared_ptrIN7testing8internal15ExpectationBaseEEC2ERKS3_
FN:214,214,_ZNSt10shared_ptrIN7testing8internal12ReturnActionIiE4ImplIiE5StateEEC2IS6_vEEPT_
FN:214,214,_ZNSt10shared_ptrIN7testing8internal15ExpectationBaseEEC2INS1_16TypedExpectationIFiiPKiiEEEvEEPT_
FN:359,360,_ZNSt10shared_ptrIN7testing10OnceActionIFiiPKiiEE23IgnoreIncomingArgumentsINS0_8internal12ReturnActionIiE4ImplIiEEEEEC2EOSD_
FN:359,360,_ZNSt10shared_ptrIN7testing10OnceActionIFiiPKiiEEEEC2EOS6_
FN:359,360,_ZNSt10shared_ptrIN7testing8internal15ExpectationBaseEEC2EOS3_
FN:414,414,_ZNSt10shared_ptrIKN7testing20CardinalityInterfaceEEaSERKS3_
FN:463,465,_ZNSt10shared_ptrIN7testing10OnceActionIFiiPKiiEE23IgnoreIncomingArgumentsINS0_8internal12ReturnActionIiE4ImplIiEEEEEC2ISaIvEJSC_EEESt20_Sp_alloc_shared_tagIT_EDpOT0_
FN:463,465,_ZNSt10shared_ptrIN7testing10OnceActionIFiiPKiiEEEEC2ISaIvEJS5_EEESt20_Sp_alloc_shared_tagIT_EDpOT0_
FNDA:1,_ZSt11make_sharedIN7testing10OnceActionIFiiPKiiEE23IgnoreIncomingArgumentsINS0_8internal12ReturnActionIiE4ImplIiEEEEJSC_EESt10shared_ptrINSt9enable_ifIXntsrSt8is_arrayIT_E5valueESG_E4typeEEDpOT0_
FNDA:1,_ZSt11make_sharedIN7testing10OnceActionIFiiPKiiEEEJS5_EESt10shared_ptrINSt9enable_ifIXntsrSt8is_arrayIT_E5valueES9_E4typeEEDpOT0_
FNDA:0,_ZNSt10shared_ptrIN7testing10OnceActionIFiiPKiiEE23IgnoreIncomingArgumentsINS0_8internal12ReturnActionIiE4ImplIiEEEEEC2ERKSD_
FNDA:1,_ZNSt10shared_ptrIN7testing10OnceActionIFiiPKiiEEEEC2ERKS6_
FNDA:2,_ZNSt10shared_ptrIN7testing8internal12ReturnActionIiE4ImplIiE5StateEEC2ERKS7_
FNDA:1,_ZNSt10shared_ptrIN7testing8internal15ExpectationBaseEEC2ERKS3_
FNDA:1,_ZNSt10shared_ptrIN7testing8internal12ReturnActionIiE4ImplIiE5StateEEC2IS6_vEEPT_
FNDA:1,_ZNSt10shared_ptrIN7testing8internal15ExpectationBaseEEC2INS1_16TypedExpectationIFiiPKiiEEEvEEPT_
FNDA:1,_ZNSt10shared_ptrIN7testing10OnceActionIFiiPKiiEE23IgnoreIncomingArgumentsINS0_8internal12ReturnActionIiE4ImplIiEEEEEC2EOSD_
FNDA:1,_ZNSt10shared_ptrIN7testing10OnceActionIFiiPKiiEEEEC2EOS6_
FNDA:0,_ZNSt10shared_ptrIN7testing8internal15ExpectationBaseEEC2EOS3_
FNDA:1,_ZNSt10shared_ptrIKN7testing20CardinalityInterfaceEEaSERKS3_
FNDA:1,_ZNSt10shared_ptrIN7testing10OnceActionIFiiPKiiEE23IgnoreIncomingArgumentsINS0_8internal12ReturnActionIiE4ImplIiEEEEEC2ISaIvEJSC_EEESt20_Sp_alloc_shared_tagIT_EDpOT0_
FNDA:1,_ZNSt10shared_ptrIN7testing10OnceActionIFiiPKiiEEEEC2ISaIvEJS5_EEESt20_Sp_alloc_shared_tagIT_EDpOT0_
FNF:14
FNH:12
DA:204,4
DA:214,2
DA:359,2
DA:360,2
DA:414,1
DA:463,2
DA:464,2
DA:465,2
DA:1005,2
DA:1010,4
LF:10
LH:10
end_of_record
TN:
SF:/usr/include/c++/13.2.1/bits/shared_ptr_base.h
FN:1068,1072,_ZNSt14__shared_countILN9__gnu_cxx12_Lock_policyE2EED2Ev
FN:1074,1079,_ZNSt14__shared_countILN9__gnu_cxx12_Lock_policyE2EEC2ERKS2_
FN:1082,1094,_ZNSt14__shared_countILN9__gnu_cxx12_Lock_policyE2EEaSERKS2_
FN:1097,1102,_ZNSt14__shared_countILN9__gnu_cxx12_Lock_policyE2EE7_M_swapERS2_
FN:129,130,_ZNSt16_Sp_counted_baseILN9__gnu_cxx12_Lock_policyE2EEC2Ev
FN:133,134,_ZNSt16_Sp_counted_baseILN9__gnu_cxx12_Lock_policyE2EED0Ev
FN:133,134,_ZNSt16_Sp_counted_baseILN9__gnu_cxx12_Lock_policyE2EED2Ev
FN:1347,1351,_ZNKSt19__shared_ptr_accessIN7testing10OnceActionIFiiPKiiEE23IgnoreIncomingArgumentsINS0_8internal12ReturnActionIiE4ImplIiEEEELN9__gnu_cxx12_Lock_policyE2ELb0ELb0EEdeEv
FN:1347,1351,_ZNKSt19__shared_ptr_accessIN7testing10OnceActionIFiiPKiiEEELN9__gnu_cxx12_Lock_policyE2ELb0ELb0EEdeEv
FN:1354,1358,_ZNKSt19__shared_ptr_accessIKN7testing20CardinalityInterfaceELN9__gnu_cxx12_Lock_policyE2ELb0ELb0EEptEv
FN:1354,1358,_ZNKSt19__shared_ptr_accessIN7testing8internal12ReturnActionIiE4ImplIiE5StateELN9__gnu_cxx12_Lock_policyE2ELb0ELb0EEptEv
FN:1354,1358,_ZNKSt19__shared_ptr_accessIN7testing8internal15ExpectationBaseELN9__gnu_cxx12_Lock_policyE2ELb0ELb0EEptEv
FN:1362,1363,_ZNKSt19__shared_ptr_accessIKN7testing20CardinalityInterfaceELN9__gnu_cxx12_Lock_policyE2ELb0ELb0EE6_M_getEv
FN:1362,1363,_ZNKSt19__shared_ptr_accessIN7testing10OnceActionIFiiPKiiEE23IgnoreIncomingArgumentsINS0_8internal12ReturnActionIiE4ImplIiEEEELN9__gnu_cxx12_Lock_policyE2ELb0ELb0EE6_M_getEv
FN:1362,1363,_ZNKSt19__shared_ptr_accessIN7testing10OnceActionIFiiPKiiEEELN9__gnu_cxx12_Lock_policyE2ELb0ELb0EE6_M_getEv
FN:1362,1363,_ZNKSt19__shared_ptr_accessIN7testing8internal12ReturnActionIiE4ImplIiE5StateELN9__gnu_cxx12_Lock_policyE2ELb0ELb0EE6_M_getEv
FN:1362,1363,_ZNKSt19__shared_ptr_accessIN7testing8internal15ExpectationBaseELN9__gnu_cxx12_Lock_policyE2ELb0ELb0EE6_M_getEv
FN:143,144,_ZNSt16_Sp_counted_baseILN9__gnu_cxx12_Lock_policyE2EE10_M_destroyEv
FN:1468,1474,_ZNSt12__shared_ptrIN7testing8internal12ReturnActionIiE4ImplIiE5StateELN9__gnu_cxx12_Lock_policyE2EEC2IS6_vEEPT_
FN:1468,1474,_ZNSt12__shared_ptrIN7testing8internal15ExpectationBaseELN9__gnu_cxx12_Lock_policyE2EEC2INS1_16TypedExpectationIFiiPKiiEEEvEEPT_
FN:151,152,_ZNSt16_Sp_counted_baseILN9__gnu_cxx12_Lock_policyE2EE15_M_add_ref_copyEv
FN:1522,1522,_ZNSt12__shared_ptrIN7testing10OnceActionIFiiPKiiEE23IgnoreIncomingArgumentsINS0_8internal12ReturnActionIiE4ImplIiEEEELN9__gnu_cxx12_Lock_policyE2EEC2ERKSF_
FN:1522,1522,_ZNSt12__shared_ptrIN7testing10OnceActionIFiiPKiiEEELN9__gnu_cxx12_Lock_policyE2EEC2ERKS8_
FN:1522,1522,_ZNSt12__shared_ptrIN7testing8internal12ReturnActionIiE4ImplIiE5StateELN9__gnu_cxx12_Lock_policyE2EEC2ERKS9_
FN:1522,1522,_ZNSt12__shared_ptrIN7testing8internal15ExpectationBaseELN9__gnu_cxx12_Lock_policyE2EEC2ERKS5_
FN:1523,1523,_ZNSt12__shared_ptrIKN7testing20CardinalityInterfaceELN9__gnu_cxx12_Lock_policyE2EEaSERKS5_
FN:1524,1524,_ZNSt12__shared_ptrIKN7testing20CardinalityInterfaceELN9__gnu_cxx12_Lock_policyE2EED2Ev
FN:1524,1524,_ZNSt12__shared_ptrIN7testing10OnceActionIFiiPKiiEE23IgnoreIncomingArgumentsINS0_8internal12ReturnActionIiE4ImplIiEEEELN9__gnu_cxx12_Lock_policyE2EED2Ev
FN:1524,1524,_ZNSt12__shared_ptrIN7testing10OnceActionIFiiPKiiEEELN9__gnu_cxx12_Lock_policyE2EED2Ev
FN:1524,1524,_ZNSt12__shared_ptrIN7testing8internal12ReturnActionIiE4ImplIiE5StateELN9__gnu_cxx12_Lock_policyE2EED2Ev
FN:1524,1524,_ZNSt12__shared_ptrIN7testing8internal15ExpectationBaseELN9__gnu_cxx12_Lock_policyE2EED2Ev
FN:1531,1536,_ZNSt12__shared_ptrIN7testing10OnceActionIFiiPKiiEE23IgnoreIncomingArgumentsINS0_8internal12ReturnActionIiE4ImplIiEEEELN9__gnu_cxx12_Lock_policyE2EEC2EOSF_
FN:1531,1536,_ZNSt12__shared_ptrIN7testing10OnceActionIFiiPKiiEEELN9__gnu_cxx12_Lock_policyE2EEC2EOS8_
FN:1531,1536,_ZNSt12__shared_ptrIN7testing8internal15ExpectationBaseELN9__gnu_cxx12_Lock_policyE2EEC2EOS5_
FN:1665,1666,_ZNKSt12__shared_ptrIKN7testing20CardinalityInterfaceELN9__gnu_cxx12_Lock_policyE2EE3getEv
FN:1665,1666,_ZNKSt12__shared_ptrIN7testing10OnceActionIFiiPKiiEE23IgnoreIncomingArgumentsINS0_8internal12ReturnActionIiE4ImplIiEEEELN9__gnu_cxx12_Lock_policyE2EE3getEv
FN:1665,1666,_ZNKSt12__shared_ptrIN7testing10OnceActionIFiiPKiiEEELN9__gnu_cxx12_Lock_policyE2EE3getEv
FN:1665,1666,_ZNKSt12__shared_ptrIN7testing8internal12ReturnActionIiE4ImplIiE5StateELN9__gnu_cxx12_Lock_policyE2EE3getEv
FN:1665,1666,_ZNKSt12__shared_ptrIN7testing8internal15ExpectationBaseELN9__gnu_cxx12_Lock_policyE2EE3getEv
FN:1711,1713,_ZNSt12__shared_ptrIN7testing10OnceActionIFiiPKiiEE23IgnoreIncomingArgumentsINS0_8internal12ReturnActionIiE4ImplIiEEEELN9__gnu_cxx12_Lock_policyE2EEC2ISaIvEJSC_EEESt20_Sp_alloc_shared_tagIT_EDpOT0_
FN:1711,1713,_ZNSt12__shared_ptrIN7testing10OnceActionIFiiPKiiEEELN9__gnu_cxx12_Lock_policyE2EEC2ISaIvEJS5_EEESt20_Sp_alloc_shared_tagIT_EDpOT0_
FN:172,193,_ZNSt16_Sp_counted_baseILN9__gnu_cxx12_Lock_policyE2EE19_M_release_last_useEv
FN:1765,1766,_ZNSt12__shared_ptrIN7testing10OnceActionIFiiPKiiEE23IgnoreIncomingArgumentsINS0_8internal12ReturnActionIiE4ImplIiEEEELN9__gnu_cxx12_Lock_policyE2EE31_M_enable_shared_from_this_withISC_SC_EENSt9enable_ifIXntsrNSF_15__has_esft_baseIT0_vEE5valueEvE4typeEPT_
FN:1765,1766,_ZNSt12__shared_ptrIN7testing10OnceActionIFiiPKiiEEELN9__gnu_cxx12_Lock_policyE2EE31_M_enable_shared_from_this_withIS5_S5_EENSt9enable_ifIXntsrNS8_15__has_esft_baseIT0_vEE5valueEvE4typeEPT_
FN:1765,1766,_ZNSt12__shared_ptrIN7testing8internal12ReturnActionIiE4ImplIiE5StateELN9__gnu_cxx12_Lock_policyE2EE31_M_enable_shared_from_this_withIS6_S6_EENSt9enable_ifIXntsrNS9_15__has_esft_baseIT0_vEE5valueEvE4typeEPT_
FN:1765,1766,_ZNSt12__shared_ptrIN7testing8internal15ExpectationBaseELN9__gnu_cxx12_Lock_policyE2EE31_M_enable_shared_from_this_withINS1_16TypedExpectationIFiiPKiiEEESB_EENSt9enable_ifIXntsrNS5_15__has_esft_baseIT0_vEE5valueEvE4typeEPT_
FN:198,199,_ZNSt16_Sp_counted_baseILN9__gnu_cxx12_Lock_policyE2EE24_M_release_last_use_coldEv
FN:317,363,_ZNSt16_Sp_counted_baseILN9__gnu_cxx12_Lock_policyE2EE10_M_releaseEv
FN:423,424,_ZNSt15_Sp_counted_ptrIPN7testing8internal12ReturnActionIiE4ImplIiE5StateELN9__gnu_cxx12_Lock_policyE2EEC2ES7_
FN:423,424,_ZNSt15_Sp_counted_ptrIPN7testing8internal16TypedExpectationIFiiPKiiEEELN9__gnu_cxx12_Lock_policyE2EEC2ES7_
FN:427,428,_ZNSt15_Sp_counted_ptrIPN7testing8internal12ReturnActionIiE4ImplIiE5StateELN9__gnu_cxx12_Lock_policyE2EE10_M_disposeEv
FN:427,428,_ZNSt15_Sp_counted_ptrIPN7testing8internal16TypedExpectationIFiiPKiiEEELN9__gnu_cxx12_Lock_policyE2EE10_M_disposeEv
FN:431,432,_ZNSt15_Sp_counted_ptrIPN7testing8internal12ReturnActionIiE4ImplIiE5StateELN9__gnu_cxx12_Lock_policyE2EE10_M_destroyEv
FN:431,432,_ZNSt15_Sp_counted_ptrIPN7testing8internal16TypedExpectationIFiiPKiiEEELN9__gnu_cxx12_Lock_policyE2EE10_M_destroyEv
FN:435,436,_ZNSt15_Sp_counted_ptrIPN7testing8internal12ReturnActionIiE4ImplIiE5StateELN9__gnu_cxx12_Lock_policyE2EE14_M_get_deleterERKSt9type_info
FN:435,436,_ZNSt15_Sp_counted_ptrIPN7testing8internal16TypedExpectationIFiiPKiiEEELN9__gnu_cxx12_Lock_policyE2EE14_M_get_deleterERKSt9type_info
FN:470,470,_ZNSt14_Sp_ebo_helperILi0ESaIvELb1EEC2ERKS0_
FN:474,474,_ZNSt14_Sp_ebo_helperILi0ESaIvELb1EE6_S_getERS1_
FN:564,568,_ZNSt19_Sp_make_shared_tag5_S_tiEv
FN:587,587,_ZNSt23_Sp_counted_ptr_inplaceIN7testing10OnceActionIFiiPKiiEE23IgnoreIncomingArgumentsINS0_8internal12ReturnActionIiE4ImplIiEEEESaIvELN9__gnu_cxx12_Lock_policyE2EE5_ImplC2ESD_
FN:587,587,_ZNSt23_Sp_counted_ptr_inplaceIN7testing10OnceActionIFiiPKiiEEESaIvELN9__gnu_cxx12_Lock_policyE2EE5_ImplC2ES6_
FN:589,589,_ZNSt23_Sp_counted_ptr_inplaceIN7testing10OnceActionIFiiPKiiEE23IgnoreIncomingArgumentsINS0_8internal12ReturnActionIiE4ImplIiEEEESaIvELN9__gnu_cxx12_Lock_policyE2EE5_Impl8_M_allocEv
FN:589,589,_ZNSt23_Sp_counted_ptr_inplaceIN7testing10OnceActionIFiiPKiiEEESaIvELN9__gnu_cxx12_Lock_policyE2EE5_Impl8_M_allocEv
FN:599,606,_ZNSt23_Sp_counted_ptr_inplaceIN7testing10OnceActionIFiiPKiiEE23IgnoreIncomingArgumentsINS0_8internal12ReturnActionIiE4ImplIiEEEESaIvELN9__gnu_cxx12_Lock_policyE2EEC2IJSC_EEESD_DpOT_
FN:599,606,_ZNSt23_Sp_counted_ptr_inplaceIN7testing10OnceActionIFiiPKiiEEESaIvELN9__gnu_cxx12_Lock_policyE2EEC2IJS5_EEES6_DpOT_
FN:608,608,_ZNSt23_Sp_counted_ptr_inplaceIN7testing10OnceActionIFiiPKiiEE23IgnoreIncomingArgumentsINS0_8internal12ReturnActionIiE4ImplIiEEEESaIvELN9__gnu_cxx12_Lock_policyE2EED0Ev
FN:608,608,_ZNSt23_Sp_counted_ptr_inplaceIN7testing10OnceActionIFiiPKiiEE23IgnoreIncomingArgumentsINS0_8internal12ReturnActionIiE4ImplIiEEEESaIvELN9__gnu_cxx12_Lock_policyE2EED2Ev
FN:608,608,_ZNSt23_Sp_counted_ptr_inplaceIN7testing10OnceActionIFiiPKiiEEESaIvELN9__gnu_cxx12_Lock_policyE2EED0Ev
FN:608,608,_ZNSt23_Sp_counted_ptr_inplaceIN7testing10OnceActionIFiiPKiiEEESaIvELN9__gnu_cxx12_Lock_policyE2EED2Ev
FN:611,614,_ZNSt23_Sp_counted_ptr_inplaceIN7testing10OnceActionIFiiPKiiEE23IgnoreIncomingArgumentsINS0_8internal12ReturnActionIiE4ImplIiEEEESaIvELN9__gnu_cxx12_Lock_policyE2EE10_M_disposeEv
FN:611,614,_ZNSt23_Sp_counted_ptr_inplaceIN7testing10OnceActionIFiiPKiiEEESaIvELN9__gnu_cxx12_Lock_policyE2EE10_M_disposeEv
FN:618,623,_ZNSt23_Sp_counted_ptr_inplaceIN7testing10OnceActionIFiiPKiiEE23IgnoreIncomingArgumentsINS0_8internal12ReturnActionIiE4ImplIiEEEESaIvELN9__gnu_cxx12_Lock_policyE2EE10_M_destroyEv
FN:618,623,_ZNSt23_Sp_counted_ptr_inplaceIN7testing10OnceActionIFiiPKiiEEESaIvELN9__gnu_cxx12_Lock_policyE2EE10_M_destroyEv
FN:631,648,_ZNSt23_Sp_counted_ptr_inplaceIN7testing10OnceActionIFiiPKiiEE23IgnoreIncomingArgumentsINS0_8internal12ReturnActionIiE4ImplIiEEEESaIvELN9__gnu_cxx12_Lock_policyE2EE14_M_get_deleterERKSt9type_info
FN:631,648,_ZNSt23_Sp_counted_ptr_inplaceIN7testing10OnceActionIFiiPKiiEEESaIvELN9__gnu_cxx12_Lock_policyE2EE14_M_get_deleterERKSt9type_info
FN:650,650,_ZNSt23_Sp_counted_ptr_inplaceIN7testing10OnceActionIFiiPKiiEE23IgnoreIncomingArgumentsINS0_8internal12ReturnActionIiE4ImplIiEEEESaIvELN9__gnu_cxx12_Lock_policyE2EE6_M_ptrEv
FN:650,650,_ZNSt23_Sp_counted_ptr_inplaceIN7testing10OnceActionIFiiPKiiEEESaIvELN9__gnu_cxx12_Lock_policyE2EE6_M_ptrEv
FN:908,909,_ZNSt14__shared_countILN9__gnu_cxx12_Lock_policyE2EEC2Ev
FN:913,924,_ZNSt14__shared_countILN9__gnu_cxx12_Lock_policyE2EEC2IPN7testing8internal12ReturnActionIiE4ImplIiE5StateEEET_
FN:913,924,_ZNSt14__shared_countILN9__gnu_cxx12_Lock_policyE2EEC2IPN7testing8internal16TypedExpectationIFiiPKiiEEEEET_
FN:927,929,_ZNSt14__shared_countILN9__gnu_cxx12_Lock_policyE2EEC2IPN7testing8internal12ReturnActionIiE4ImplIiE5StateEEET_St17integral_constantIbLb0EE
FN:927,929,_ZNSt14__shared_countILN9__gnu_cxx12_Lock_policyE2EEC2IPN7testing8internal16TypedExpectationIFiiPKiiEEEEET_St17integral_constantIbLb0EE
FN:964,976,_ZNSt14__shared_countILN9__gnu_cxx12_Lock_policyE2EEC2IN7testing10OnceActionIFiiPKiiEE23IgnoreIncomingArgumentsINS4_8internal12ReturnActionIiE4ImplIiEEEESaIvEJSG_EEERPT_St20_Sp_alloc_shared_tagIT0_EDpOT1_
FN:964,976,_ZNSt14__shared_countILN9__gnu_cxx12_Lock_policyE2EEC2IN7testing10OnceActionIFiiPKiiEEESaIvEJS9_EEERPT_St20_Sp_alloc_shared_tagIT0_EDpOT1_
FNDA:12,_ZNSt14__shared_countILN9__gnu_cxx12_Lock_policyE2EED2Ev
FNDA:4,_ZNSt14__shared_countILN9__gnu_cxx12_Lock_policyE2EEC2ERKS2_
FNDA:1,_ZNSt14__shared_countILN9__gnu_cxx12_Lock_policyE2EEaSERKS2_
FNDA:2,_ZNSt14__shared_countILN9__gnu_cxx12_Lock_policyE2EE7_M_swapERS2_
FNDA:6,_ZNSt16_Sp_counted_baseILN9__gnu_cxx12_Lock_policyE2EEC2Ev
FNDA:0,_ZNSt16_Sp_counted_baseILN9__gnu_cxx12_Lock_policyE2EED0Ev
FNDA:6,_ZNSt16_Sp_counted_baseILN9__gnu_cxx12_Lock_policyE2EED2Ev
FNDA:1,_ZNKSt19__shared_ptr_accessIN7testing10OnceActionIFiiPKiiEE23IgnoreIncomingArgumentsINS0_8internal12ReturnActionIiE4ImplIiEEEELN9__gnu_cxx12_Lock_policyE2ELb0ELb0EEdeEv
FNDA:1,_ZNKSt19__shared_ptr_accessIN7testing10OnceActionIFiiPKiiEEELN9__gnu_cxx12_Lock_policyE2ELb0ELb0EEdeEv
FNDA:7,_ZNKSt19__shared_ptr_accessIKN7testing20CardinalityInterfaceELN9__gnu_cxx12_Lock_policyE2ELb0ELb0EEptEv
FNDA:1,_ZNKSt19__shared_ptr_accessIN7testing8internal12ReturnActionIiE4ImplIiE5StateELN9__gnu_cxx12_Lock_policyE2ELb0ELb0EEptEv
FNDA:0,_ZNKSt19__shared_ptr_accessIN7testing8internal15ExpectationBaseELN9__gnu_cxx12_Lock_policyE2ELb0ELb0EEptEv
FNDA:7,_ZNKSt19__shared_ptr_accessIKN7testing20CardinalityInterfaceELN9__gnu_cxx12_Lock_policyE2ELb0ELb0EE6_M_getEv
FNDA:1,_ZNKSt19__shared_ptr_accessIN7testing10OnceActionIFiiPKiiEE23IgnoreIncomingArgumentsINS0_8internal12ReturnActionIiE4ImplIiEEEELN9__gnu_cxx12_Lock_policyE2ELb0ELb0EE6_M_getEv
FNDA:1,_ZNKSt19__shared_ptr_accessIN7testing10OnceActionIFiiPKiiEEELN9__gnu_cxx12_Lock_policyE2ELb0ELb0EE6_M_getEv
FNDA:1,_ZNKSt19__shared_ptr_accessIN7testing8internal12ReturnActionIiE4ImplIiE5StateELN9__gnu_cxx12_Lock_policyE2ELb0ELb0EE6_M_getEv
FNDA:0,_ZNKSt19__shared_ptr_accessIN7testing8internal15ExpectationBaseELN9__gnu_cxx12_Lock_policyE2ELb0ELb0EE6_M_getEv
FNDA:0,_ZNSt16_Sp_counted_baseILN9__gnu_cxx12_Lock_policyE2EE10_M_destroyEv
FNDA:1,_ZNSt12__shared_ptrIN7testing8internal12ReturnActionIiE4ImplIiE5StateELN9__gnu_cxx12_Lock_policyE2EEC2IS6_vEEPT_
FNDA:1,_ZNSt12__shared_ptrIN7testing8internal15ExpectationBaseELN9__gnu_cxx12_Lock_policyE2EEC2INS1_16TypedExpectationIFiiPKiiEEEvEEPT_
FNDA:5,_ZNSt16_Sp_counted_baseILN9__gnu_cxx12_Lock_policyE2EE15_M_add_ref_copyEv
FNDA:0,_ZNSt12__shared_ptrIN7testing10OnceActionIFiiPKiiEE23IgnoreIncomingArgumentsINS0_8internal12ReturnActionIiE4ImplIiEEEELN9__gnu_cxx12_Lock_policyE2EEC2ERKSF_
FNDA:1,_ZNSt12__shared_ptrIN7testing10OnceActionIFiiPKiiEEELN9__gnu_cxx12_Lock_policyE2EEC2ERKS8_
FNDA:2,_ZNSt12__shared_ptrIN7testing8internal12ReturnActionIiE4ImplIiE5StateELN9__gnu_cxx12_Lock_policyE2EEC2ERKS9_
FNDA:1,_ZNSt12__shared_ptrIN7testing8internal15ExpectationBaseELN9__gnu_cxx12_Lock_policyE2EEC2ERKS5_
FNDA:1,_ZNSt12__shared_ptrIKN7testing20CardinalityInterfaceELN9__gnu_cxx12_Lock_policyE2EEaSERKS5_
FNDA:2,_ZNSt12__shared_ptrIKN7testing20CardinalityInterfaceELN9__gnu_cxx12_Lock_policyE2EED2Ev
FNDA:2,_ZNSt12__shared_ptrIN7testing10OnceActionIFiiPKiiEE23IgnoreIncomingArgumentsINS0_8internal12ReturnActionIiE4ImplIiEEEELN9__gnu_cxx12_Lock_policyE2EED2Ev
FNDA:3,_ZNSt12__shared_ptrIN7testing10OnceActionIFiiPKiiEEELN9__gnu_cxx12_Lock_policyE2EED2Ev
FNDA:3,_ZNSt12__shared_ptrIN7testing8internal12ReturnActionIiE4ImplIiE5StateELN9__gnu_cxx12_Lock_policyE2EED2Ev
FNDA:2,_ZNSt12__shared_ptrIN7testing8internal15ExpectationBaseELN9__gnu_cxx12_Lock_policyE2EED2Ev
FNDA:1,_ZNSt12__shared_ptrIN7testing10OnceActionIFiiPKiiEE23IgnoreIncomingArgumentsINS0_8internal12ReturnActionIiE4ImplIiEEEELN9__gnu_cxx12_Lock_policyE2EEC2EOSF_
FNDA:1,_ZNSt12__shared_ptrIN7testing10OnceActionIFiiPKiiEEELN9__gnu_cxx12_Lock_policyE2EEC2EOS8_
FNDA:0,_ZNSt12__shared_ptrIN7testing8internal15ExpectationBaseELN9__gnu_cxx12_Lock_policyE2EEC2EOS5_
FNDA:7,_ZNKSt12__shared_ptrIKN7testing20CardinalityInterfaceELN9__gnu_cxx12_Lock_policyE2EE3getEv
FNDA:1,_ZNKSt12__shared_ptrIN7testing10OnceActionIFiiPKiiEE23IgnoreIncomingArgumentsINS0_8internal12ReturnActionIiE4ImplIiEEEELN9__gnu_cxx12_Lock_policyE2EE3getEv
FNDA:1,_ZNKSt12__shared_ptrIN7testing10OnceActionIFiiPKiiEEELN9__gnu_cxx12_Lock_policyE2EE3getEv
FNDA:1,_ZNKSt12__shared_ptrIN7testing8internal12ReturnActionIiE4ImplIiE5StateELN9__gnu_cxx12_Lock_policyE2EE3getEv
FNDA:2,_ZNKSt12__shared_ptrIN7testing8internal15ExpectationBaseELN9__gnu_cxx12_Lock_policyE2EE3getEv
FNDA:1,_ZNSt12__shared_ptrIN7testing10OnceActionIFiiPKiiEE23IgnoreIncomingArgumentsINS0_8internal12ReturnActionIiE4ImplIiEEEELN9__gnu_cxx12_Lock_policyE2EEC2ISaIvEJSC_EEESt20_Sp_alloc_shared_tagIT_EDpOT0_
FNDA:1,_ZNSt12__shared_ptrIN7testing10OnceActionIFiiPKiiEEELN9__gnu_cxx12_Lock_policyE2EEC2ISaIvEJS5_EEESt20_Sp_alloc_shared_tagIT_EDpOT0_
FNDA:0,_ZNSt16_Sp_counted_baseILN9__gnu_cxx12_Lock_policyE2EE19_M_release_last_useEv
FNDA:1,_ZNSt12__shared_ptrIN7testing10OnceActionIFiiPKiiEE23IgnoreIncomingArgumentsINS0_8internal12ReturnActionIiE4ImplIiEEEELN9__gnu_cxx12_Lock_policyE2EE31_M_enable_shared_from_this_withISC_SC_EENSt9enable_ifIXntsrNSF_15__has_esft_baseIT0_vEE5valueEvE4typeEPT_
FNDA:1,_ZNSt12__shared_ptrIN7testing10OnceActionIFiiPKiiEEELN9__gnu_cxx12_Lock_policyE2EE31_M_enable_shared_from_this_withIS5_S5_EENSt9enable_ifIXntsrNS8_15__has_esft_baseIT0_vEE5valueEvE4typeEPT_
FNDA:1,_ZNSt12__shared_ptrIN7testing8internal12ReturnActionIiE4ImplIiE5StateELN9__gnu_cxx12_Lock_policyE2EE31_M_enable_shared_from_this_withIS6_S6_EENSt9enable_ifIXntsrNS9_15__has_esft_baseIT0_vEE5valueEvE4typeEPT_
FNDA:1,_ZNSt12__shared_ptrIN7testing8internal15ExpectationBaseELN9__gnu_cxx12_Lock_policyE2EE31_M_enable_shared_from_this_withINS1_16TypedExpectationIFiiPKiiEEESB_EENSt9enable_ifIXntsrNS5_15__has_esft_baseIT0_vEE5valueEvE4typeEPT_
FNDA:0,_ZNSt16_Sp_counted_baseILN9__gnu_cxx12_Lock_policyE2EE24_M_release_last_use_coldEv
FNDA:11,_ZNSt16_Sp_counted_baseILN9__gnu_cxx12_Lock_policyE2EE10_M_releaseEv
FNDA:1,_ZNSt15_Sp_counted_ptrIPN7testing8internal12ReturnActionIiE4ImplIiE5StateELN9__gnu_cxx12_Lock_policyE2EEC2ES7_
FNDA:1,_ZNSt15_Sp_counted_ptrIPN7testing8internal16TypedExpectationIFiiPKiiEEELN9__gnu_cxx12_Lock_policyE2EEC2ES7_
FNDA:1,_ZNSt15_Sp_counted_ptrIPN7testing8internal12ReturnActionIiE4ImplIiE5StateELN9__gnu_cxx12_Lock_policyE2EE10_M_disposeEv
FNDA:1,_ZNSt15_Sp_counted_ptrIPN7testing8internal16TypedExpectationIFiiPKiiEEELN9__gnu_cxx12_Lock_policyE2EE10_M_disposeEv
FNDA:1,_ZNSt15_Sp_counted_ptrIPN7testing8internal12ReturnActionIiE4ImplIiE5StateELN9__gnu_cxx12_Lock_policyE2EE10_M_destroyEv
FNDA:1,_ZNSt15_Sp_counted_ptrIPN7testing8internal16TypedExpectationIFiiPKiiEEELN9__gnu_cxx12_Lock_policyE2EE10_M_destroyEv
FNDA:0,_ZNSt15_Sp_counted_ptrIPN7testing8internal12ReturnActionIiE4ImplIiE5StateELN9__gnu_cxx12_Lock_policyE2EE14_M_get_deleterERKSt9type_info
FNDA:0,_ZNSt15_Sp_counted_ptrIPN7testing8internal16TypedExpectationIFiiPKiiEEELN9__gnu_cxx12_Lock_policyE2EE14_M_get_deleterERKSt9type_info
FNDA:2,_ZNSt14_Sp_ebo_helperILi0ESaIvELb1EEC2ERKS0_
FNDA:4,_ZNSt14_Sp_ebo_helperILi0ESaIvELb1EE6_S_getERS1_
FNDA:0,_ZNSt19_Sp_make_shared_tag5_S_tiEv
FNDA:1,_ZNSt23_Sp_counted_ptr_inplaceIN7testing10OnceActionIFiiPKiiEE23IgnoreIncomingArgumentsINS0_8internal12ReturnActionIiE4ImplIiEEEESaIvELN9__gnu_cxx12_Lock_policyE2EE5_ImplC2ESD_
FNDA:1,_ZNSt23_Sp_counted_ptr_inplaceIN7testing10OnceActionIFiiPKiiEEESaIvELN9__gnu_cxx12_Lock_policyE2EE5_ImplC2ES6_
FNDA:2,_ZNSt23_Sp_counted_ptr_inplaceIN7testing10OnceActionIFiiPKiiEE23IgnoreIncomingArgumentsINS0_8internal12ReturnActionIiE4ImplIiEEEESaIvELN9__gnu_cxx12_Lock_policyE2EE5_Impl8_M_allocEv
FNDA:2,_ZNSt23_Sp_counted_ptr_inplaceIN7testing10OnceActionIFiiPKiiEEESaIvELN9__gnu_cxx12_Lock_policyE2EE5_Impl8_M_allocEv
FNDA:1,_ZNSt23_Sp_counted_ptr_inplaceIN7testing10OnceActionIFiiPKiiEE23IgnoreIncomingArgumentsINS0_8internal12ReturnActionIiE4ImplIiEEEESaIvELN9__gnu_cxx12_Lock_policyE2EEC2IJSC_EEESD_DpOT_
FNDA:1,_ZNSt23_Sp_counted_ptr_inplaceIN7testing10OnceActionIFiiPKiiEEESaIvELN9__gnu_cxx12_Lock_policyE2EEC2IJS5_EEES6_DpOT_
FNDA:0,_ZNSt23_Sp_counted_ptr_inplaceIN7testing10OnceActionIFiiPKiiEE23IgnoreIncomingArgumentsINS0_8internal12ReturnActionIiE4ImplIiEEEESaIvELN9__gnu_cxx12_Lock_policyE2EED0Ev
FNDA:1,_ZNSt23_Sp_counted_ptr_inplaceIN7testing10OnceActionIFiiPKiiEE23IgnoreIncomingArgumentsINS0_8internal12ReturnActionIiE4ImplIiEEEESaIvELN9__gnu_cxx12_Lock_policyE2EED2Ev
FNDA:0,_ZNSt23_Sp_counted_ptr_inplaceIN7testing10OnceActionIFiiPKiiEEESaIvELN9__gnu_cxx12_Lock_policyE2EED0Ev
FNDA:1,_ZNSt23_Sp_counted_ptr_inplaceIN7testing10OnceActionIFiiPKiiEEESaIvELN9__gnu_cxx12_Lock_policyE2EED2Ev
FNDA:1,_ZNSt23_Sp_counted_ptr_inplaceIN7testing10OnceActionIFiiPKiiEE23IgnoreIncomingArgumentsINS0_8internal12ReturnActionIiE4ImplIiEEEESaIvELN9__gnu_cxx12_Lock_policyE2EE10_M_disposeEv
FNDA:1,_ZNSt23_Sp_counted_ptr_inplaceIN7testing10OnceActionIFiiPKiiEEESaIvELN9__gnu_cxx12_Lock_policyE2EE10_M_disposeEv
FNDA:1,_ZNSt23_Sp_counted_ptr_inplaceIN7testing10OnceActionIFiiPKiiEE23IgnoreIncomingArgumentsINS0_8internal12ReturnActionIiE4ImplIiEEEESaIvELN9__gnu_cxx12_Lock_policyE2EE10_M_destroyEv
FNDA:1,_ZNSt23_Sp_counted_ptr_inplaceIN7testing10OnceActionIFiiPKiiEEESaIvELN9__gnu_cxx12_Lock_policyE2EE10_M_destroyEv
FNDA:0,_ZNSt23_Sp_counted_ptr_inplaceIN7testing10OnceActionIFiiPKiiEE23IgnoreIncomingArgumentsINS0_8internal12ReturnActionIiE4ImplIiEEEESaIvELN9__gnu_cxx12_Lock_policyE2EE14_M_get_deleterERKSt9type_info
FNDA:0,_ZNSt23_Sp_counted_ptr_inplaceIN7testing10OnceActionIFiiPKiiEEESaIvELN9__gnu_cxx12_Lock_policyE2EE14_M_get_deleterERKSt9type_info
FNDA:3,_ZNSt23_Sp_counted_ptr_inplaceIN7testing10OnceActionIFiiPKiiEE23IgnoreIncomingArgumentsINS0_8internal12ReturnActionIiE4ImplIiEEEESaIvELN9__gnu_cxx12_Lock_policyE2EE6_M_ptrEv
FNDA:3,_ZNSt23_Sp_counted_ptr_inplaceIN7testing10OnceActionIFiiPKiiEEESaIvELN9__gnu_cxx12_Lock_policyE2EE6_M_ptrEv
FNDA:2,_ZNSt14__shared_countILN9__gnu_cxx12_Lock_policyE2EEC2Ev
FNDA:1,_ZNSt14__shared_countILN9__gnu_cxx12_Lock_policyE2EEC2IPN7testing8internal12ReturnActionIiE4ImplIiE5StateEEET_
FNDA:1,_ZNSt14__shared_countILN9__gnu_cxx12_Lock_policyE2EEC2IPN7testing8internal16TypedExpectationIFiiPKiiEEEEET_
FNDA:1,_ZNSt14__shared_countILN9__gnu_cxx12_Lock_policyE2EEC2IPN7testing8internal12ReturnActionIiE4ImplIiE5StateEEET_St17integral_constantIbLb0EE
FNDA:1,_ZNSt14__shared_countILN9__gnu_cxx12_Lock_policyE2EEC2IPN7testing8internal16TypedExpectationIFiiPKiiEEEEET_St17integral_constantIbLb0EE
FNDA:1,_ZNSt14__shared_countILN9__gnu_cxx12_Lock_policyE2EEC2IN7testing10OnceActionIFiiPKiiEE23IgnoreIncomingArgumentsINS4_8internal12ReturnActionIiE4ImplIiEEEESaIvEJSG_EEERPT_St20_Sp_alloc_shared_tagIT0_EDpOT1_
FNDA:1,_ZNSt14__shared_countILN9__gnu_cxx12_Lock_policyE2EEC2IN7testing10OnceActionIFiiPKiiEEESaIvEJS9_EEERPT_St20_Sp_alloc_shared_tagIT0_EDpOT1_
FNF:84
FNH:69
DA:129,6
DA:130,6
DA:133,6
DA:134,6
DA:143,0
DA:144,0
DA:151,5
DA:152,5
DA:172,0
DA:175,0
DA:187,0
DA:188,0
DA:191,0
DA:193,0
DA:198,0
DA:199,0
DA:317,11
DA:321,11
DA:324,11
DA:328,11
DA:331,11
DA:332,11
DA:333,11
DA:334,11
DA:337,11
DA:343,6
DA:346,6
DA:347,6
DA:348,6
DA:350,10
DA:351,0
DA:353,0
DA:354,0
DA:423,2
DA:424,2
DA:427,2
DA:428,2
DA:431,2
DA:432,2
DA:435,0
DA:436,0
DA:470,2
DA:474,4
DA:564,0
DA:567,0
DA:587,2
DA:589,4
DA:599,2
DA:600,2
DA:604,2
DA:606,2
DA:608,2
DA:611,2
DA:613,2
DA:614,2
DA:618,2
DA:620,2
DA:621,2
DA:622,2
DA:623,2
DA:631,0
DA:633,0
DA:638,0
DA:639,0
DA:641,0
DA:646,0
DA:647,0
DA:650,6
DA:908,2
DA:909,2
DA:913,2
DA:917,2
DA:919,0
DA:921,0
DA:922,0
DA:924,2
DA:927,2
DA:928,2
DA:929,2
DA:964,2
DA:968,2
DA:969,2
DA:970,2
DA:971,2
DA:973,2
DA:974,2
DA:975,2
DA:976,4
DA:1068,12
DA:1070,12
DA:1071,10
DA:1072,12
DA:1074,4
DA:1075,4
DA:1077,4
DA:1078,4
DA:1079,4
DA:1082,1
DA:1084,1
DA:1085,1
DA:1087,1
DA:1088,1
DA:1089,1
DA:1090,1
DA:1091,1
DA:1093,1
DA:1097,2
DA:1099,2
DA:1100,2
DA:1101,2
DA:1102,2
DA:1347,2
DA:1349,2
DA:1350,2
DA:1354,8
DA:1357,8
DA:1362,10
DA:1363,10
DA:1468,2
DA:1469,2
DA:1473,2
DA:1474,2
DA:1522,4
DA:1523,1
DA:1524,12
DA:1531,2
DA:1532,2
DA:1534,2
DA:1535,2
DA:1536,2
DA:1665,12
DA:1666,12
DA:1711,2
DA:1712,2
DA:1713,2
DA:1765,4
DA:1766,4
LF:137
LH:110
end_of_record
TN:
SF:/usr/include/c++/13.2.1/bits/std_function.h
FN:134,143,_ZNSt14_Function_base13_Base_managerIN7testing10OnceActionIFiiPKiiEE18StdFunctionAdaptorINS6_23IgnoreIncomingArgumentsINS1_8internal12ReturnActionIiE4ImplIiEEEEEEE14_M_get_pointerERKSt9_Any_data
FN:134,143,_ZNSt14_Function_base13_Base_managerIN7testing8internal16TypedExpectationIFiiPKiiEE13ActionAdaptorEE14_M_get_pointerERKSt9_Any_data
FN:134,143,_ZNSt14_Function_base13_Base_managerIZN7testing8internal14FunctionMockerIFiiP17spi_transaction_tEE10InvokeWithEOSt5tupleIJiS5_EEEUlvE0_E14_M_get_pointerERKSt9_Any_data
FN:134,143,_ZNSt14_Function_base13_Base_managerIZN7testing8internal14FunctionMockerIFiiP17spi_transaction_tEE10InvokeWithEOSt5tupleIJiS5_EEEUlvE_E14_M_get_pointerERKSt9_Any_data
FN:134,143,_ZNSt14_Function_base13_Base_managerIZN7testing8internal14FunctionMockerIFiiPKiPiEE10InvokeWithEOSt5tupleIJiS5_S6_EEEUlvE0_E14_M_get_pointerERKSt9_Any_data
FN:134,143,_ZNSt14_Function_base13_Base_managerIZN7testing8internal14FunctionMockerIFiiPKiPiEE10InvokeWithEOSt5tupleIJiS5_S6_EEEUlvE_E14_M_get_pointerERKSt9_Any_data
FN:134,143,_ZNSt14_Function_base13_Base_managerIZN7testing8internal14FunctionMockerIFiiPKiiEE10InvokeWithEOSt5tupleIJiS5_iEEEUlvE0_E14_M_get_pointerERKSt9_Any_data
FN:134,143,_ZNSt14_Function_base13_Base_managerIZN7testing8internal14FunctionMockerIFiiPKiiEE10InvokeWithEOSt5tupleIJiS5_iEEEUlvE_E14_M_get_pointerERKSt9_Any_data
FN:150,153,_ZNSt14_Function_base13_Base_managerIZN7testing8internal14FunctionMockerIFiiP17spi_transaction_tEE10InvokeWithEOSt5tupleIJiS5_EEEUlvE_E9_M_createIRKSB_EEvRSt9_Any_dataOT_St17integral_constantIbLb1EE
FN:150,153,_ZNSt14_Function_base13_Base_managerIZN7testing8internal14FunctionMockerIFiiP17spi_transaction_tEE10InvokeWithEOSt5tupleIJiS5_EEEUlvE_E9_M_createISB_EEvRSt9_Any_dataOT_St17integral_constantIbLb1EE
FN:150,153,_ZNSt14_Function_base13_Base_managerIZN7testing8internal14FunctionMockerIFiiPKiPiEE10InvokeWithEOSt5tupleIJiS5_S6_EEEUlvE_E9_M_createIRKSC_EEvRSt9_Any_dataOT_St17integral_constantIbLb1EE
FN:150,153,_ZNSt14_Function_base13_Base_managerIZN7testing8internal14FunctionMockerIFiiPKiPiEE10InvokeWithEOSt5tupleIJiS5_S6_EEEUlvE_E9_M_createISC_EEvRSt9_Any_dataOT_St17integral_constantIbLb1EE
FN:150,153,_ZNSt14_Function_base13_Base_managerIZN7testing8internal14FunctionMockerIFiiPKiiEE10InvokeWithEOSt5tupleIJiS5_iEEEUlvE_E9_M_createIRKSB_EEvRSt9_Any_dataOT_St17integral_constantIbLb1EE
FN:150,153,_ZNSt14_Function_base13_Base_managerIZN7testing8internal14FunctionMockerIFiiPKiiEE10InvokeWithEOSt5tupleIJiS5_iEEEUlvE_E9_M_createISB_EEvRSt9_Any_dataOT_St17integral_constantIbLb1EE
FN:158,162,_ZNSt14_Function_base13_Base_managerIN7testing10OnceActionIFiiPKiiEE18StdFunctionAdaptorINS6_23IgnoreIncomingArgumentsINS1_8internal12ReturnActionIiE4ImplIiEEEEEEE9_M_createIRKSF_EEvRSt9_Any_dataOT_St17integral_constantIbLb0EE
FN:158,162,_ZNSt14_Function_base13_Base_managerIN7testing10OnceActionIFiiPKiiEE18StdFunctionAdaptorINS6_23IgnoreIncomingArgumentsINS1_8internal12ReturnActionIiE4ImplIiEEEEEEE9_M_createISF_EEvRSt9_Any_dataOT_St17integral_constantIbLb0EE
FN:158,162,_ZNSt14_Function_base13_Base_managerIN7testing8internal16TypedExpectationIFiiPKiiEE13ActionAdaptorEE9_M_createIRKS8_EEvRSt9_Any_dataOT_St17integral_constantIbLb0EE
FN:158,162,_ZNSt14_Function_base13_Base_managerIN7testing8internal16TypedExpectationIFiiPKiiEE13ActionAdaptorEE9_M_createIS8_EEvRSt9_Any_dataOT_St17integral_constantIbLb0EE
FN:158,162,_ZNSt14_Function_base13_Base_managerIZN7testing8internal14FunctionMockerIFiiP17spi_transaction_tEE10InvokeWithEOSt5tupleIJiS5_EEEUlvE0_E9_M_createIRKSB_EEvRSt9_Any_dataOT_St17integral_constantIbLb0EE
FN:158,162,_ZNSt14_Function_base13_Base_managerIZN7testing8internal14FunctionMockerIFiiP17spi_transaction_tEE10InvokeWithEOSt5tupleIJiS5_EEEUlvE0_E9_M_createISB_EEvRSt9_Any_dataOT_St17integral_constantIbLb0EE
FN:158,162,_ZNSt14_Function_base13_Base_managerIZN7testing8internal14FunctionMockerIFiiPKiPiEE10InvokeWithEOSt5tupleIJiS5_S6_EEEUlvE0_E9_M_createIRKSC_EEvRSt9_Any_dataOT_St17integral_constantIbLb0EE
FN:158,162,_ZNSt14_Function_base13_Base_managerIZN7testing8internal14FunctionMockerIFiiPKiPiEE10InvokeWithEOSt5tupleIJiS5_S6_EEEUlvE0_E9_M_createISC_EEvRSt9_Any_dataOT_St17integral_constantIbLb0EE
FN:158,162,_ZNSt14_Function_base13_Base_managerIZN7testing8internal14FunctionMockerIFiiPKiiEE10InvokeWithEOSt5tupleIJiS5_iEEEUlvE0_E9_M_createIRKSB_EEvRSt9_Any_dataOT_St17integral_constantIbLb0EE
FN:158,162,_ZNSt14_Function_base13_Base_managerIZN7testing8internal14FunctionMockerIFiiPKiiEE10InvokeWithEOSt5tupleIJiS5_iEEEUlvE0_E9_M_createISB_EEvRSt9_Any_dataOT_St17integral_constantIbLb0EE
FN:166,169,_ZNSt14_Function_base13_Base_managerIZN7testing8internal14FunctionMockerIFiiP17spi_transaction_tEE10InvokeWithEOSt5tupleIJiS5_EEEUlvE_E10_M_destroyERSt9_Any_dataSt17integral_constantIbLb1EE
FN:166,169,_ZNSt14_Function_base13_Base_managerIZN7testing8internal14FunctionMockerIFiiPKiPiEE10InvokeWithEOSt5tupleIJiS5_S6_EEEUlvE_E10_M_destroyERSt9_Any_dataSt17integral_constantIbLb1EE
FN:166,169,_ZNSt14_Function_base13_Base_managerIZN7testing8internal14FunctionMockerIFiiPKiiEE10InvokeWithEOSt5tupleIJiS5_iEEEUlvE_E10_M_destroyERSt9_Any_dataSt17integral_constantIbLb1EE
FN:173,176,_ZNSt14_Function_base13_Base_managerIN7testing10OnceActionIFiiPKiiEE18StdFunctionAdaptorINS6_23IgnoreIncomingArgumentsINS1_8internal12ReturnActionIiE4ImplIiEEEEEEE10_M_destroyERSt9_Any_dataSt17integral_constantIbLb0EE
FN:173,176,_ZNSt14_Function_base13_Base_managerIN7testing8internal16TypedExpectationIFiiPKiiEE13ActionAdaptorEE10_M_destroyERSt9_Any_dataSt17integral_constantIbLb0EE
FN:173,176,_ZNSt14_Function_base13_Base_managerIZN7testing8internal14FunctionMockerIFiiP17spi_transaction_tEE10InvokeWithEOSt5tupleIJiS5_EEEUlvE0_E10_M_destroyERSt9_Any_dataSt17integral_constantIbLb0EE
FN:173,176,_ZNSt14_Function_base13_Base_managerIZN7testing8internal14FunctionMockerIFiiPKiPiEE10InvokeWithEOSt5tupleIJiS5_S6_EEEUlvE0_E10_M_destroyERSt9_Any_dataSt17integral_constantIbLb0EE
FN:173,176,_ZNSt14_Function_base13_Base_managerIZN7testing8internal14FunctionMockerIFiiPKiiEE10InvokeWithEOSt5tupleIJiS5_iEEEUlvE0_E10_M_destroyERSt9_Any_dataSt17integral_constantIbLb0EE
FN:180,207,_ZNSt14_Function_base13_Base_managerIN7testing10OnceActionIFiiPKiiEE18StdFunctionAdaptorINS6_23IgnoreIncomingArgumentsINS1_8internal12ReturnActionIiE4ImplIiEEEEEEE10_M_managerERSt9_Any_dataRKSH_St18_Manager_operation
FN:180,207,_ZNSt14_Function_base13_Base_managerIN7testing8internal16TypedExpectationIFiiPKiiEE13ActionAdaptorEE10_M_managerERSt9_Any_dataRKSA_St18_Manager_operation
FN:180,207,_ZNSt14_Function_base13_Base_managerIZN7testing8internal14FunctionMockerIFiiP17spi_transaction_tEE10InvokeWithEOSt5tupleIJiS5_EEEUlvE0_E10_M_managerERSt9_Any_dataRKSD_St18_Manager_operation
FN:180,207,_ZNSt14_Function_base13_Base_managerIZN7testing8internal14FunctionMockerIFiiP17spi_transaction_tEE10InvokeWithEOSt5tupleIJiS5_EEEUlvE_E10_M_managerERSt9_Any_dataRKSD_St18_Manager_operation
FN:180,207,_ZNSt14_Function_base13_Base_managerIZN7testing8internal14FunctionMockerIFiiPKiPiEE10InvokeWithEOSt5tupleIJiS5_S6_EEEUlvE0_E10_M_managerERSt9_Any_dataRKSE_St18_Manager_operation
FN:180,207,_ZNSt14_Function_base13_Base_managerIZN7testing8internal14FunctionMockerIFiiPKiPiEE10InvokeWithEOSt5tupleIJiS5_S6_EEEUlvE_E10_M_managerERSt9_Any_dataRKSE_St18_Manager_operation
FN:180,207,_ZNSt14_Function_base13_Base_managerIZN7testing8internal14FunctionMockerIFiiPKiiEE10InvokeWithEOSt5tupleIJiS5_iEEEUlvE0_E10_M_managerERSt9_Any_dataRKSD_St18_Manager_operation
FN:180,207,_ZNSt14_Function_base13_Base_managerIZN7testing8internal14FunctionMockerIFiiPKiiEE10InvokeWithEOSt5tupleIJiS5_iEEEUlvE_E10_M_managerERSt9_Any_dataRKSD_St18_Manager_operation
FN:211,216,_ZNSt14_Function_base13_Base_managerIN7testing10OnceActionIFiiPKiiEE18StdFunctionAdaptorINS6_23IgnoreIncomingArgumentsINS1_8internal12ReturnActionIiE4ImplIiEEEEEEE15_M_init_functorIRKSF_EEvRSt9_Any_dataOT_
FN:211,216,_ZNSt14_Function_base13_Base_managerIN7testing10OnceActionIFiiPKiiEE18StdFunctionAdaptorINS6_23IgnoreIncomingArgumentsINS1_8internal12ReturnActionIiE4ImplIiEEEEEEE15_M_init_functorISF_EEvRSt9_Any_dataOT_
FN:211,216,_ZNSt14_Function_base13_Base_managerIN7testing8internal16TypedExpectationIFiiPKiiEE13ActionAdaptorEE15_M_init_functorIRKS8_EEvRSt9_Any_dataOT_
FN:211,216,_ZNSt14_Function_base13_Base_managerIN7testing8internal16TypedExpectationIFiiPKiiEE13ActionAdaptorEE15_M_init_functorIS8_EEvRSt9_Any_dataOT_
FN:211,216,_ZNSt14_Function_base13_Base_managerIZN7testing8internal14FunctionMockerIFiiP17spi_transaction_tEE10InvokeWithEOSt5tupleIJiS5_EEEUlvE0_E15_M_init_functorIRKSB_EEvRSt9_Any_dataOT_
FN:211,216,_ZNSt14_Function_base13_Base_managerIZN7testing8internal14FunctionMockerIFiiP17spi_transaction_tEE10InvokeWithEOSt5tupleIJiS5_EEEUlvE0_E15_M_init_functorISB_EEvRSt9_Any_dataOT_
FN:211,216,_ZNSt14_Function_base13_Base_managerIZN7testing8internal14FunctionMockerIFiiP17spi_transaction_tEE10InvokeWithEOSt5tupleIJiS5_EEEUlvE_E15_M_init_functorIRKSB_EEvRSt9_Any_dataOT_
FN:211,216,_ZNSt14_Function_base13_Base_managerIZN7testing8internal14FunctionMockerIFiiP17spi_transaction_tEE10InvokeWithEOSt5tupleIJiS5_EEEUlvE_E15_M_init_functorISB_EEvRSt9_Any_dataOT_
FN:211,216,_ZNSt14_Function_base13_Base_managerIZN7testing8internal14FunctionMockerIFiiPKiPiEE10InvokeWithEOSt5tupleIJiS5_S6_EEEUlvE0_E15_M_init_functorIRKSC_EEvRSt9_Any_dataOT_
FN:211,216,_ZNSt14_Function_base13_Base_managerIZN7testing8internal14FunctionMockerIFiiPKiPiEE10InvokeWithEOSt5tupleIJiS5_S6_EEEUlvE0_E15_M_init_functorISC_EEvRSt9_Any_dataOT_
FN:211,216,_ZNSt14_Function_base13_Base_managerIZN7testing8internal14FunctionMockerIFiiPKiPiEE10InvokeWithEOSt5tupleIJiS5_S6_EEEUlvE_E15_M_init_functorIRKSC_EEvRSt9_Any_dataOT_
FN:211,216,_ZNSt14_Function_base13_Base_managerIZN7testing8internal14FunctionMockerIFiiPKiPiEE10InvokeWithEOSt5tupleIJiS5_S6_EEEUlvE_E15_M_init_functorISC_EEvRSt9_Any_dataOT_
FN:211,216,_ZNSt14_Function_base13_Base_managerIZN7testing8internal14FunctionMockerIFiiPKiiEE10InvokeWithEOSt5tupleIJiS5_iEEEUlvE0_E15_M_init_functorIRKSB_EEvRSt9_Any_dataOT_
FN:211,216,_ZNSt14_Function_base13_Base_managerIZN7testing8internal14FunctionMockerIFiiPKiiEE10InvokeWithEOSt5tupleIJiS5_iEEEUlvE0_E15_M_init_functorISB_EEvRSt9_Any_dataOT_
FN:211,216,_ZNSt14_Function_base13_Base_managerIZN7testing8internal14FunctionMockerIFiiPKiiEE10InvokeWithEOSt5tupleIJiS5_iEEEUlvE_E15_M_init_functorIRKSB_EEvRSt9_Any_dataOT_
FN:211,216,_ZNSt14_Function_base13_Base_managerIZN7testing8internal14FunctionMockerIFiiPKiiEE10InvokeWithEOSt5tupleIJiS5_iEEEUlvE_E15_M_init_functorISB_EEvRSt9_Any_dataOT_
FN:235,236,_ZNSt14_Function_base13_Base_managerIN7testing10OnceActionIFiiPKiiEE18StdFunctionAdaptorINS6_23IgnoreIncomingArgumentsINS1_8internal12ReturnActionIiE4ImplIiEEEEEEE21_M_not_empty_functionISF_EEbRKT_
FN:235,236,_ZNSt14_Function_base13_Base_managerIN7testing8internal16TypedExpectationIFiiPKiiEE13ActionAdaptorEE21_M_not_empty_functionIS8_EEbRKT_
FN:235,236,_ZNSt14_Function_base13_Base_managerIZN7testing8internal14FunctionMockerIFiiP17spi_transaction_tEE10InvokeWithEOSt5tupleIJiS5_EEEUlvE0_E21_M_not_empty_functionISB_EEbRKT_
FN:235,236,_ZNSt14_Function_base13_Base_managerIZN7testing8internal14FunctionMockerIFiiP17spi_transaction_tEE10InvokeWithEOSt5tupleIJiS5_EEEUlvE_E21_M_not_empty_functionISB_EEbRKT_
FN:235,236,_ZNSt14_Function_base13_Base_managerIZN7testing8internal14FunctionMockerIFiiPKiPiEE10InvokeWithEOSt5tupleIJiS5_S6_EEEUlvE0_E21_M_not_empty_functionISC_EEbRKT_
FN:235,236,_ZNSt14_Function_base13_Base_managerIZN7testing8internal14FunctionMockerIFiiPKiPiEE10InvokeWithEOSt5tupleIJiS5_S6_EEEUlvE_E21_M_not_empty_functionISC_EEbRKT_
FN:235,236,_ZNSt14_Function_base13_Base_managerIZN7testing8internal14FunctionMockerIFiiPKiiEE10InvokeWithEOSt5tupleIJiS5_iEEEUlvE0_E21_M_not_empty_functionISB_EEbRKT_
FN:235,236,_ZNSt14_Function_base13_Base_managerIZN7testing8internal14FunctionMockerIFiiPKiiEE10InvokeWithEOSt5tupleIJiS5_iEEEUlvE_E21_M_not_empty_functionISB_EEbRKT_
FN:239,239,_ZNSt14_Function_baseC2Ev
FN:241,245,_ZNSt14_Function_baseD2Ev
FN:247,247,_ZNKSt14_Function_base8_M_emptyEv
FN:267,285,_ZNSt17_Function_handlerIFiiPKiiEN7testing10OnceActionIS2_E18StdFunctionAdaptorINS5_23IgnoreIncomingArgumentsINS3_8internal12ReturnActionIiE4ImplIiEEEEEEE10_M_managerERSt9_Any_dataRKSG_St18_Manager_operation
FN:267,285,_ZNSt17_Function_handlerIFiiPKiiEN7testing8internal16TypedExpectationIS2_E13ActionAdaptorEE10_M_managerERSt9_Any_dataRKS9_St18_Manager_operation
FN:267,285,_ZNSt17_Function_handlerIFvvEZN7testing8internal14FunctionMockerIFiiP17spi_transaction_tEE10InvokeWithEOSt5tupleIJiS5_EEEUlvE0_E10_M_managerERSt9_Any_dataRKSD_St18_Manager_operation
FN:267,285,_ZNSt17_Function_handlerIFvvEZN7testing8internal14FunctionMockerIFiiP17spi_transaction_tEE10InvokeWithEOSt5tupleIJiS5_EEEUlvE_E10_M_managerERSt9_Any_dataRKSD_St18_Manager_operation
FN:267,285,_ZNSt17_Function_handlerIFvvEZN7testing8internal14FunctionMockerIFiiPKiPiEE10InvokeWithEOSt5tupleIJiS5_S6_EEEUlvE0_E10_M_managerERSt9_Any_dataRKSE_St18_Manager_operation
FN:267,285,_ZNSt17_Function_handlerIFvvEZN7testing8internal14FunctionMockerIFiiPKiPiEE10InvokeWithEOSt5tupleIJiS5_S6_EEEUlvE_E10_M_managerERSt9_Any_dataRKSE_St18_Manager_operation
FN:267,285,_ZNSt17_Function_handlerIFvvEZN7testing8internal14FunctionMockerIFiiPKiiEE10InvokeWithEOSt5tupleIJiS5_iEEEUlvE0_E10_M_managerERSt9_Any_dataRKSD_St18_Manager_operation
FN:267,285,_ZNSt17_Function_handlerIFvvEZN7testing8internal14FunctionMockerIFiiPKiiEE10InvokeWithEOSt5tupleIJiS5_iEEEUlvE_E10_M_managerERSt9_Any_dataRKSD_St18_Manager_operation
FN:288,292,_ZNSt17_Function_handlerIFiiPKiiEN7testing10OnceActionIS2_E18StdFunctionAdaptorINS5_23IgnoreIncomingArgumentsINS3_8internal12ReturnActionIiE4ImplIiEEEEEEE9_M_invokeERKSt9_Any_dataOiOS1_SJ_
FN:288,292,_ZNSt17_Function_handlerIFiiPKiiEN7testing8internal16TypedExpectationIS2_E13ActionAdaptorEE9_M_invokeERKSt9_Any_dataOiOS1_SC_
FN:288,292,_ZNSt17_Function_handlerIFvvEZN7testing8internal14FunctionMockerIFiiP17spi_transaction_tEE10InvokeWithEOSt5tupleIJiS5_EEEUlvE0_E9_M_invokeERKSt9_Any_data
FN:288,292,_ZNSt17_Function_handlerIFvvEZN7testing8internal14FunctionMockerIFiiP17spi_transaction_tEE10InvokeWithEOSt5tupleIJiS5_EEEUlvE_E9_M_invokeERKSt9_Any_data
FN:288,292,_ZNSt17_Function_handlerIFvvEZN7testing8internal14FunctionMockerIFiiPKiPiEE10InvokeWithEOSt5tupleIJiS5_S6_EEEUlvE0_E9_M_invokeERKSt9_Any_data
FN:288,292,_ZNSt17_Function_handlerIFvvEZN7testing8internal14FunctionMockerIFiiPKiPiEE10InvokeWithEOSt5tupleIJiS5_S6_EEEUlvE_E9_M_invokeERKSt9_Any_data
FN:288,292,_ZNSt17_Function_handlerIFvvEZN7testing8internal14FunctionMockerIFiiPKiiEE10InvokeWithEOSt5tupleIJiS5_iEEEUlvE0_E9_M_invokeERKSt9_Any_data
FN:288,292,_ZNSt17_Function_handlerIFvvEZN7testing8internal14FunctionMockerIFiiPKiiEE10InvokeWithEOSt5tupleIJiS5_iEEEUlvE_E9_M_invokeERKSt9_Any_data
FN:368,369,_ZNSt8functionIFiiPKiiEEC2Ev
FN:386,395,_ZNSt8functionIFiiP17spi_transaction_tEEC2ERKS3_
FN:386,395,_ZNSt8functionIFiiPKiPiEEC2ERKS4_
FN:386,395,_ZNSt8functionIFiiPKiiEEC2ERKS3_
FN:404,414,_ZNSt8functionIFiiPKiiEEC2EOS3_
FN:404,414,_ZNSt8functionIFvvEEC2EOS1_
FN:435,454,_ZNSt8functionIFiiPKiiEEC2IN7testing10OnceActionIS2_E18StdFunctionAdaptorINS7_23IgnoreIncomingArgumentsINS5_8internal12ReturnActionIiE4ImplIiEEEEEEvEEOT_
FN:435,454,_ZNSt8functionIFiiPKiiEEC2IN7testing8internal16TypedExpectationIS2_E13ActionAdaptorEvEEOT_
FN:435,454,_ZNSt8functionIFvvEEC2IZN7testing8internal14FunctionMockerIFiiP17spi_transaction_tEE10InvokeWithEOSt5tupleIJiS7_EEEUlvE0_vEEOT_
FN:435,454,_ZNSt8functionIFvvEEC2IZN7testing8internal14FunctionMockerIFiiP17spi_transaction_tEE10InvokeWithEOSt5tupleIJiS7_EEEUlvE_vEEOT_
FN:435,454,_ZNSt8functionIFvvEEC2IZN7testing8internal14FunctionMockerIFiiPKiPiEE10InvokeWithEOSt5tupleIJiS7_S8_EEEUlvE0_vEEOT_
FN:435,454,_ZNSt8functionIFvvEEC2IZN7testing8internal14FunctionMockerIFiiPKiPiEE10InvokeWithEOSt5tupleIJiS7_S8_EEEUlvE_vEEOT_
FN:435,454,_ZNSt8functionIFvvEEC2IZN7testing8internal14FunctionMockerIFiiPKiiEE10InvokeWithEOSt5tupleIJiS7_iEEEUlvE0_vEEOT_
FN:435,454,_ZNSt8functionIFvvEEC2IZN7testing8internal14FunctionMockerIFiiPKiiEE10InvokeWithEOSt5tupleIJiS7_iEEEUlvE_vEEOT_
FN:531,536,_ZNSt8functionIFiiPKiiEEaSIN7testing8internal16TypedExpectationIS2_E13ActionAdaptorEEENSt9enable_ifIXsrNS3_9_CallableIT_NSA_IXntsrSt7is_sameINSt9remove_cvINSt16remove_referenceISC_E4typeEE4typeES3_E5valueESt5decayISC_EE4type4typeESt15__invoke_resultIRSP_JiS1_iEEEE5valueERS3_E4typeEOSC_
FN:556,561,_ZNSt8functionIFiiPKiiEE4swapERS3_
FN:573,574,_ZNKSt8functionIFiiP17spi_transaction_tEEcvbEv
FN:573,574,_ZNKSt8functionIFiiPKiPiEEcvbEv
FN:573,574,_ZNKSt8functionIFiiPKiiEEcvbEv
FN:573,574,_ZNKSt8functionIFvvEEcvbEv
FN:587,592,_ZNKSt8functionIFiiP17spi_transaction_tEEclEiS1_
FN:587,592,_ZNKSt8functionIFiiPKiPiEEclEiS1_S2_
FN:587,592,_ZNKSt8functionIFiiPKiiEEclEiS1_i
FN:587,592,_ZNKSt8functionIFvvEEclEv
FN:737,738,_ZSteqIiJiP17spi_transaction_tEEbRKSt8functionIFT_DpT0_EEDn
FN:737,738,_ZSteqIiJiPKiPiEEbRKSt8functionIFT_DpT0_EEDn
FN:737,738,_ZSteqIiJiPKiiEEbRKSt8functionIFT_DpT0_EEDn
FN:85,85,_ZNSt9_Any_data9_M_accessEv
FN:86,86,_ZNKSt9_Any_data9_M_accessEv
FN:90,91,_ZNSt9_Any_data9_M_accessIPKSt9type_infoEERT_v
FN:90,91,_ZNSt9_Any_data9_M_accessIPN7testing10OnceActionIFiiPKiiEE18StdFunctionAdaptorINS6_23IgnoreIncomingArgumentsINS1_8internal12ReturnActionIiE4ImplIiEEEEEEEERT_v
FN:90,91,_ZNSt9_Any_data9_M_accessIPN7testing8internal16TypedExpectationIFiiPKiiEE13ActionAdaptorEEERT_v
FN:90,91,_ZNSt9_Any_data9_M_accessIPZN7testing8internal14FunctionMockerIFiiP17spi_transaction_tEE10InvokeWithEOSt5tupleIJiS5_EEEUlvE0_EERT_v
FN:90,91,_ZNSt9_Any_data9_M_accessIPZN7testing8internal14FunctionMockerIFiiP17spi_transaction_tEE10InvokeWithEOSt5tupleIJiS5_EEEUlvE_EERT_v
FN:90,91,_ZNSt9_Any_data9_M_accessIPZN7testing8internal14FunctionMockerIFiiPKiPiEE10InvokeWithEOSt5tupleIJiS5_S6_EEEUlvE0_EERT_v
FN:90,91,_ZNSt9_Any_data9_M_accessIPZN7testing8internal14FunctionMockerIFiiPKiPiEE10InvokeWithEOSt5tupleIJiS5_S6_EEEUlvE_EERT_v
FN:90,91,_ZNSt9_Any_data9_M_accessIPZN7testing8internal14FunctionMockerIFiiPKiiEE10InvokeWithEOSt5tupleIJiS5_iEEEUlvE0_EERT_v
FN:90,91,_ZNSt9_Any_data9_M_accessIPZN7testing8internal14FunctionMockerIFiiPKiiEE10InvokeWithEOSt5tupleIJiS5_iEEEUlvE_EERT_v
FN:90,91,_ZNSt9_Any_data9_M_accessIZN7testing8internal14FunctionMockerIFiiP17spi_transaction_tEE10InvokeWithEOSt5tupleIJiS5_EEEUlvE_EERT_v
FN:90,91,_ZNSt9_Any_data9_M_accessIZN7testing8internal14FunctionMockerIFiiPKiPiEE10InvokeWithEOSt5tupleIJiS5_S6_EEEUlvE_EERT_v
FN:90,91,_ZNSt9_Any_data9_M_accessIZN7testing8internal14FunctionMockerIFiiPKiiEE10InvokeWithEOSt5tupleIJiS5_iEEEUlvE_EERT_v
FN:95,96,_ZNKSt9_Any_data9_M_accessIPN7testing10OnceActionIFiiPKiiEE18StdFunctionAdaptorINS6_23IgnoreIncomingArgumentsINS1_8internal12ReturnActionIiE4ImplIiEEEEEEEERKT_v
FN:95,96,_ZNKSt9_Any_data9_M_accessIPN7testing8internal16TypedExpectationIFiiPKiiEE13ActionAdaptorEEERKT_v
FN:95,96,_ZNKSt9_Any_data9_M_accessIPZN7testing8internal14FunctionMockerIFiiP17spi_transaction_tEE10InvokeWithEOSt5tupleIJiS5_EEEUlvE0_EERKT_v
FN:95,96,_ZNKSt9_Any_data9_M_accessIPZN7testing8internal14FunctionMockerIFiiPKiPiEE10InvokeWithEOSt5tupleIJiS5_S6_EEEUlvE0_EERKT_v
FN:95,96,_ZNKSt9_Any_data9_M_accessIPZN7testing8internal14FunctionMockerIFiiPKiiEE10InvokeWithEOSt5tupleIJiS5_iEEEUlvE0_EERKT_v
FN:95,96,_ZNKSt9_Any_data9_M_accessIZN7testing8internal14FunctionMockerIFiiP17spi_transaction_tEE10InvokeWithEOSt5tupleIJiS5_EEEUlvE_EERKT_v
FN:95,96,_ZNKSt9_Any_data9_M_accessIZN7testing8internal14FunctionMockerIFiiPKiPiEE10InvokeWithEOSt5tupleIJiS5_S6_EEEUlvE_EERKT_v
FN:95,96,_ZNKSt9_Any_data9_M_accessIZN7testing8internal14FunctionMockerIFiiPKiiEE10InvokeWithEOSt5tupleIJiS5_iEEEUlvE_EERKT_v
FNDA:1,_ZNSt14_Function_base13_Base_managerIN7testing10OnceActionIFiiPKiiEE18StdFunctionAdaptorINS6_23IgnoreIncomingArgumentsINS1_8internal12ReturnActionIiE4ImplIiEEEEEEE14_M_get_pointerERKSt9_Any_data
FNDA:2,_ZNSt14_Function_base13_Base_managerIN7testing8internal16TypedExpectationIFiiPKiiEE13ActionAdaptorEE14_M_get_pointerERKSt9_Any_data
FNDA:0,_ZNSt14_Function_base13_Base_managerIZN7testing8internal14FunctionMockerIFiiP17spi_transaction_tEE10InvokeWithEOSt5tupleIJiS5_EEEUlvE0_E14_M_get_pointerERKSt9_Any_data
FNDA:0,_ZNSt14_Function_base13_Base_managerIZN7testing8internal14FunctionMockerIFiiP17spi_transaction_tEE10InvokeWithEOSt5tupleIJiS5_EEEUlvE_E14_M_get_pointerERKSt9_Any_data
FNDA:0,_ZNSt14_Function_base13_Base_managerIZN7testing8internal14FunctionMockerIFiiPKiPiEE10InvokeWithEOSt5tupleIJiS5_S6_EEEUlvE0_E14_M_get_pointerERKSt9_Any_data
FNDA:0,_ZNSt14_Function_base13_Base_managerIZN7testing8internal14FunctionMockerIFiiPKiPiEE10InvokeWithEOSt5tupleIJiS5_S6_EEEUlvE_E14_M_get_pointerERKSt9_Any_data
FNDA:0,_ZNSt14_Function_base13_Base_managerIZN7testing8internal14FunctionMockerIFiiPKiiEE10InvokeWithEOSt5tupleIJiS5_iEEEUlvE0_E14_M_get_pointerERKSt9_Any_data
FNDA:0,_ZNSt14_Function_base13_Base_managerIZN7testing8internal14FunctionMockerIFiiPKiiEE10InvokeWithEOSt5tupleIJiS5_iEEEUlvE_E14_M_get_pointerERKSt9_Any_data
FNDA:0,_ZNSt14_Function_base13_Base_managerIZN7testing8internal14FunctionMockerIFiiP17spi_transaction_tEE10InvokeWithEOSt5tupleIJiS5_EEEUlvE_E9_M_createIRKSB_EEvRSt9_Any_dataOT_St17integral_constantIbLb1EE
FNDA:0,_ZNSt14_Function_base13_Base_managerIZN7testing8internal14FunctionMockerIFiiP17spi_transaction_tEE10InvokeWithEOSt5tupleIJiS5_EEEUlvE_E9_M_createISB_EEvRSt9_Any_dataOT_St17integral_constantIbLb1EE
FNDA:0,_ZNSt14_Function_base13_Base_managerIZN7testing8internal14FunctionMockerIFiiPKiPiEE10InvokeWithEOSt5tupleIJiS5_S6_EEEUlvE_E9_M_createIRKSC_EEvRSt9_Any_dataOT_St17integral_constantIbLb1EE
FNDA:0,_ZNSt14_Function_base13_Base_managerIZN7testing8internal14FunctionMockerIFiiPKiPiEE10InvokeWithEOSt5tupleIJiS5_S6_EEEUlvE_E9_M_createISC_EEvRSt9_Any_dataOT_St17integral_constantIbLb1EE
FNDA:0,_ZNSt14_Function_base13_Base_managerIZN7testing8internal14FunctionMockerIFiiPKiiEE10InvokeWithEOSt5tupleIJiS5_iEEEUlvE_E9_M_createIRKSB_EEvRSt9_Any_dataOT_St17integral_constantIbLb1EE
FNDA:0,_ZNSt14_Function_base13_Base_managerIZN7testing8internal14FunctionMockerIFiiPKiiEE10InvokeWithEOSt5tupleIJiS5_iEEEUlvE_E9_M_createISB_EEvRSt9_Any_dataOT_St17integral_constantIbLb1EE
FNDA:0,_ZNSt14_Function_base13_Base_managerIN7testing10OnceActionIFiiPKiiEE18StdFunctionAdaptorINS6_23IgnoreIncomingArgumentsINS1_8internal12ReturnActionIiE4ImplIiEEEEEEE9_M_createIRKSF_EEvRSt9_Any_dataOT_St17integral_constantIbLb0EE
FNDA:1,_ZNSt14_Function_base13_Base_managerIN7testing10OnceActionIFiiPKiiEE18StdFunctionAdaptorINS6_23IgnoreIncomingArgumentsINS1_8internal12ReturnActionIiE4ImplIiEEEEEEE9_M_createISF_EEvRSt9_Any_dataOT_St17integral_constantIbLb0EE
FNDA:1,_ZNSt14_Function_base13_Base_managerIN7testing8internal16TypedExpectationIFiiPKiiEE13ActionAdaptorEE9_M_createIRKS8_EEvRSt9_Any_dataOT_St17integral_constantIbLb0EE
FNDA:1,_ZNSt14_Function_base13_Base_managerIN7testing8internal16TypedExpectationIFiiPKiiEE13ActionAdaptorEE9_M_createIS8_EEvRSt9_Any_dataOT_St17integral_constantIbLb0EE
FNDA:0,_ZNSt14_Function_base13_Base_managerIZN7testing8internal14FunctionMockerIFiiP17spi_transaction_tEE10InvokeWithEOSt5tupleIJiS5_EEEUlvE0_E9_M_createIRKSB_EEvRSt9_Any_dataOT_St17integral_constantIbLb0EE
FNDA:0,_ZNSt14_Function_base13_Base_managerIZN7testing8internal14FunctionMockerIFiiP17spi_transaction_tEE10InvokeWithEOSt5tupleIJiS5_EEEUlvE0_E9_M_createISB_EEvRSt9_Any_dataOT_St17integral_constantIbLb0EE
FNDA:0,_ZNSt14_Function_base13_Base_managerIZN7testing8internal14FunctionMockerIFiiPKiPiEE10InvokeWithEOSt5tupleIJiS5_S6_EEEUlvE0_E9_M_createIRKSC_EEvRSt9_Any_dataOT_St17integral_constantIbLb0EE
FNDA:0,_ZNSt14_Function_base13_Base_managerIZN7testing8internal14FunctionMockerIFiiPKiPiEE10InvokeWithEOSt5tupleIJiS5_S6_EEEUlvE0_E9_M_createISC_EEvRSt9_Any_dataOT_St17integral_constantIbLb0EE
FNDA:0,_ZNSt14_Function_base13_Base_managerIZN7testing8internal14FunctionMockerIFiiPKiiEE10InvokeWithEOSt5tupleIJiS5_iEEEUlvE0_E9_M_createIRKSB_EEvRSt9_Any_dataOT_St17integral_constantIbLb0EE
FNDA:0,_ZNSt14_Function_base13_Base_managerIZN7testing8internal14FunctionMockerIFiiPKiiEE10InvokeWithEOSt5tupleIJiS5_iEEEUlvE0_E9_M_createISB_EEvRSt9_Any_dataOT_St17integral_constantIbLb0EE
FNDA:0,_ZNSt14_Function_base13_Base_managerIZN7testing8internal14FunctionMockerIFiiP17spi_transaction_tEE10InvokeWithEOSt5tupleIJiS5_EEEUlvE_E10_M_destroyERSt9_Any_dataSt17integral_constantIbLb1EE
FNDA:0,_ZNSt14_Function_base13_Base_managerIZN7testing8internal14FunctionMockerIFiiPKiPiEE10InvokeWithEOSt5tupleIJiS5_S6_EEEUlvE_E10_M_destroyERSt9_Any_dataSt17integral_constantIbLb1EE
FNDA:0,_ZNSt14_Function_base13_Base_managerIZN7testing8internal14FunctionMockerIFiiPKiiEE10InvokeWithEOSt5tupleIJiS5_iEEEUlvE_E10_M_destroyERSt9_Any_dataSt17integral_constantIbLb1EE
FNDA:1,_ZNSt14_Function_base13_Base_managerIN7testing10OnceActionIFiiPKiiEE18StdFunctionAdaptorINS6_23IgnoreIncomingArgumentsINS1_8internal12ReturnActionIiE4ImplIiEEEEEEE10_M_destroyERSt9_Any_dataSt17integral_constantIbLb0EE
FNDA:2,_ZNSt14_Function_base13_Base_managerIN7testing8internal16TypedExpectationIFiiPKiiEE13ActionAdaptorEE10_M_destroyERSt9_Any_dataSt17integral_constantIbLb0EE
FNDA:0,_ZNSt14_Function_base13_Base_managerIZN7testing8internal14FunctionMockerIFiiP17spi_transaction_tEE10InvokeWithEOSt5tupleIJiS5_EEEUlvE0_E10_M_destroyERSt9_Any_dataSt17integral_constantIbLb0EE
FNDA:0,_ZNSt14_Function_base13_Base_managerIZN7testing8internal14FunctionMockerIFiiPKiPiEE10InvokeWithEOSt5tupleIJiS5_S6_EEEUlvE0_E10_M_destroyERSt9_Any_dataSt17integral_constantIbLb0EE
FNDA:0,_ZNSt14_Function_base13_Base_managerIZN7testing8internal14FunctionMockerIFiiPKiiEE10InvokeWithEOSt5tupleIJiS5_iEEEUlvE0_E10_M_destroyERSt9_Any_dataSt17integral_constantIbLb0EE
FNDA:1,_ZNSt14_Function_base13_Base_managerIN7testing10OnceActionIFiiPKiiEE18StdFunctionAdaptorINS6_23IgnoreIncomingArgumentsINS1_8internal12ReturnActionIiE4ImplIiEEEEEEE10_M_managerERSt9_Any_dataRKSH_St18_Manager_operation
FNDA:3,_ZNSt14_Function_base13_Base_managerIN7testing8internal16TypedExpectationIFiiPKiiEE13ActionAdaptorEE10_M_managerERSt9_Any_dataRKSA_St18_Manager_operation
FNDA:0,_ZNSt14_Function_base13_Base_managerIZN7testing8internal14FunctionMockerIFiiP17spi_transaction_tEE10InvokeWithEOSt5tupleIJiS5_EEEUlvE0_E10_M_managerERSt9_Any_dataRKSD_St18_Manager_operation
FNDA:0,_ZNSt14_Function_base13_Base_managerIZN7testing8internal14FunctionMockerIFiiP17spi_transaction_tEE10InvokeWithEOSt5tupleIJiS5_EEEUlvE_E10_M_managerERSt9_Any_dataRKSD_St18_Manager_operation
FNDA:0,_ZNSt14_Function_base13_Base_managerIZN7testing8internal14FunctionMockerIFiiPKiPiEE10InvokeWithEOSt5tupleIJiS5_S6_EEEUlvE0_E10_M_managerERSt9_Any_dataRKSE_St18_Manager_operation
FNDA:0,_ZNSt14_Function_base13_Base_managerIZN7testing8internal14FunctionMockerIFiiPKiPiEE10InvokeWithEOSt5tupleIJiS5_S6_EEEUlvE_E10_M_managerERSt9_Any_dataRKSE_St18_Manager_operation
FNDA:0,_ZNSt14_Function_base13_Base_managerIZN7testing8internal14FunctionMockerIFiiPKiiEE10InvokeWithEOSt5tupleIJiS5_iEEEUlvE0_E10_M_managerERSt9_Any_dataRKSD_St18_Manager_operation
FNDA:0,_ZNSt14_Function_base13_Base_managerIZN7testing8internal14FunctionMockerIFiiPKiiEE10InvokeWithEOSt5tupleIJiS5_iEEEUlvE_E10_M_managerERSt9_Any_dataRKSD_St18_Manager_operation
FNDA:0,_ZNSt14_Function_base13_Base_managerIN7testing10OnceActionIFiiPKiiEE18StdFunctionAdaptorINS6_23IgnoreIncomingArgumentsINS1_8internal12ReturnActionIiE4ImplIiEEEEEEE15_M_init_functorIRKSF_EEvRSt9_Any_dataOT_
FNDA:1,_ZNSt14_Function_base13_Base_managerIN7testing10OnceActionIFiiPKiiEE18StdFunctionAdaptorINS6_23IgnoreIncomingArgumentsINS1_8internal12ReturnActionIiE4ImplIiEEEEEEE15_M_init_functorISF_EEvRSt9_Any_dataOT_
FNDA:1,_ZNSt14_Function_base13_Base_managerIN7testing8internal16TypedExpectationIFiiPKiiEE13ActionAdaptorEE15_M_init_functorIRKS8_EEvRSt9_Any_dataOT_
FNDA:1,_ZNSt14_Function_base13_Base_managerIN7testing8internal16TypedExpectationIFiiPKiiEE13ActionAdaptorEE15_M_init_functorIS8_EEvRSt9_Any_dataOT_
FNDA:0,_ZNSt14_Function_base13_Base_managerIZN7testing8internal14FunctionMockerIFiiP17spi_transaction_tEE10InvokeWithEOSt5tupleIJiS5_EEEUlvE0_E15_M_init_functorIRKSB_EEvRSt9_Any_dataOT_
FNDA:0,_ZNSt14_Function_base13_Base_managerIZN7testing8internal14FunctionMockerIFiiP17spi_transaction_tEE10InvokeWithEOSt5tupleIJiS5_EEEUlvE0_E15_M_init_functorISB_EEvRSt9_Any_dataOT_
FNDA:0,_ZNSt14_Function_base13_Base_managerIZN7testing8internal14FunctionMockerIFiiP17spi_transaction_tEE10InvokeWithEOSt5tupleIJiS5_EEEUlvE_E15_M_init_functorIRKSB_EEvRSt9_Any_dataOT_
FNDA:0,_ZNSt14_Function_base13_Base_managerIZN7testing8internal14FunctionMockerIFiiP17spi_transaction_tEE10InvokeWithEOSt5tupleIJiS5_EEEUlvE_E15_M_init_functorISB_EEvRSt9_Any_dataOT_
FNDA:0,_ZNSt14_Function_base13_Base_managerIZN7testing8internal14FunctionMockerIFiiPKiPiEE10InvokeWithEOSt5tupleIJiS5_S6_EEEUlvE0_E15_M_init_functorIRKSC_EEvRSt9_Any_dataOT_
FNDA:0,_ZNSt14_Function_base13_Base_managerIZN7testing8internal14FunctionMockerIFiiPKiPiEE10InvokeWithEOSt5tupleIJiS5_S6_EEEUlvE0_E15_M_init_functorISC_EEvRSt9_Any_dataOT_
FNDA:0,_ZNSt14_Function_base13_Base_managerIZN7testing8internal14FunctionMockerIFiiPKiPiEE10InvokeWithEOSt5tupleIJiS5_S6_EEEUlvE_E15_M_init_functorIRKSC_EEvRSt9_Any_dataOT_
FNDA:0,_ZNSt14_Function_base13_Base_managerIZN7testing8internal14FunctionMockerIFiiPKiPiEE10InvokeWithEOSt5tupleIJiS5_S6_EEEUlvE_E15_M_init_functorISC_EEvRSt9_Any_dataOT_
FNDA:0,_ZNSt14_Function_base13_Base_managerIZN7testing8internal14FunctionMockerIFiiPKiiEE10InvokeWithEOSt5tupleIJiS5_iEEEUlvE0_E15_M_init_functorIRKSB_EEvRSt9_Any_dataOT_
FNDA:0,_ZNSt14_Function_base13_Base_managerIZN7testing8internal14FunctionMockerIFiiPKiiEE10InvokeWithEOSt5tupleIJiS5_iEEEUlvE0_E15_M_init_functorISB_EEvRSt9_Any_dataOT_
FNDA:0,_ZNSt14_Function_base13_Base_managerIZN7testing8internal14FunctionMockerIFiiPKiiEE10InvokeWithEOSt5tupleIJiS5_iEEEUlvE_E15_M_init_functorIRKSB_EEvRSt9_Any_dataOT_
FNDA:0,_ZNSt14_Function_base13_Base_managerIZN7testing8internal14FunctionMockerIFiiPKiiEE10InvokeWithEOSt5tupleIJiS5_iEEEUlvE_E15_M_init_functorISB_EEvRSt9_Any_dataOT_
FNDA:1,_ZNSt14_Function_base13_Base_managerIN7testing10OnceActionIFiiPKiiEE18StdFunctionAdaptorINS6_23IgnoreIncomingArgumentsINS1_8internal12ReturnActionIiE4ImplIiEEEEEEE21_M_not_empty_functionISF_EEbRKT_
FNDA:1,_ZNSt14_Function_base13_Base_managerIN7testing8internal16TypedExpectationIFiiPKiiEE13ActionAdaptorEE21_M_not_empty_functionIS8_EEbRKT_
FNDA:0,_ZNSt14_Function_base13_Base_managerIZN7testing8internal14FunctionMockerIFiiP17spi_transaction_tEE10InvokeWithEOSt5tupleIJiS5_EEEUlvE0_E21_M_not_empty_functionISB_EEbRKT_
FNDA:0,_ZNSt14_Function_base13_Base_managerIZN7testing8internal14FunctionMockerIFiiP17spi_transaction_tEE10InvokeWithEOSt5tupleIJiS5_EEEUlvE_E21_M_not_empty_functionISB_EEbRKT_
FNDA:0,_ZNSt14_Function_base13_Base_managerIZN7testing8internal14FunctionMockerIFiiPKiPiEE10InvokeWithEOSt5tupleIJiS5_S6_EEEUlvE0_E21_M_not_empty_functionISC_EEbRKT_
FNDA:0,_ZNSt14_Function_base13_Base_managerIZN7testing8internal14FunctionMockerIFiiPKiPiEE10InvokeWithEOSt5tupleIJiS5_S6_EEEUlvE_E21_M_not_empty_functionISC_EEbRKT_
FNDA:0,_ZNSt14_Function_base13_Base_managerIZN7testing8internal14FunctionMockerIFiiPKiiEE10InvokeWithEOSt5tupleIJiS5_iEEEUlvE0_E21_M_not_empty_functionISB_EEbRKT_
FNDA:0,_ZNSt14_Function_base13_Base_managerIZN7testing8internal14FunctionMockerIFiiPKiiEE10InvokeWithEOSt5tupleIJiS5_iEEEUlvE_E21_M_not_empty_functionISB_EEbRKT_
FNDA:7,_ZNSt14_Function_baseC2Ev
FNDA:7,_ZNSt14_Function_baseD2Ev
FNDA:7,_ZNKSt14_Function_base8_M_emptyEv
FNDA:1,_ZNSt17_Function_handlerIFiiPKiiEN7testing10OnceActionIS2_E18StdFunctionAdaptorINS5_23IgnoreIncomingArgumentsINS3_8internal12ReturnActionIiE4ImplIiEEEEEEE10_M_managerERSt9_Any_dataRKSG_St18_Manager_operation
FNDA:3,_ZNSt17_Function_handlerIFiiPKiiEN7testing8internal16TypedExpectationIS2_E13ActionAdaptorEE10_M_managerERSt9_Any_dataRKS9_St18_Manager_operation
FNDA:0,_ZNSt17_Function_handlerIFvvEZN7testing8internal14FunctionMockerIFiiP17spi_transaction_tEE10InvokeWithEOSt5tupleIJiS5_EEEUlvE0_E10_M_managerERSt9_Any_dataRKSD_St18_Manager_operation
FNDA:0,_ZNSt17_Function_handlerIFvvEZN7testing8internal14FunctionMockerIFiiP17spi_transaction_tEE10InvokeWithEOSt5tupleIJiS5_EEEUlvE_E10_M_managerERSt9_Any_dataRKSD_St18_Manager_operation
FNDA:0,_ZNSt17_Function_handlerIFvvEZN7testing8internal14FunctionMockerIFiiPKiPiEE10InvokeWithEOSt5tupleIJiS5_S6_EEEUlvE0_E10_M_managerERSt9_Any_dataRKSE_St18_Manager_operation
FNDA:0,_ZNSt17_Function_handlerIFvvEZN7testing8internal14FunctionMockerIFiiPKiPiEE10InvokeWithEOSt5tupleIJiS5_S6_EEEUlvE_E10_M_managerERSt9_Any_dataRKSE_St18_Manager_operation
FNDA:0,_ZNSt17_Function_handlerIFvvEZN7testing8internal14FunctionMockerIFiiPKiiEE10InvokeWithEOSt5tupleIJiS5_iEEEUlvE0_E10_M_managerERSt9_Any_dataRKSD_St18_Manager_operation
FNDA:0,_ZNSt17_Function_handlerIFvvEZN7testing8internal14FunctionMockerIFiiPKiiEE10InvokeWithEOSt5tupleIJiS5_iEEEUlvE_E10_M_managerERSt9_Any_dataRKSD_St18_Manager_operation
FNDA:1,_ZNSt17_Function_handlerIFiiPKiiEN7testing10OnceActionIS2_E18StdFunctionAdaptorINS5_23IgnoreIncomingArgumentsINS3_8internal12ReturnActionIiE4ImplIiEEEEEEE9_M_invokeERKSt9_Any_dataOiOS1_SJ_
FNDA:1,_ZNSt17_Function_handlerIFiiPKiiEN7testing8internal16TypedExpectationIS2_E13ActionAdaptorEE9_M_invokeERKSt9_Any_dataOiOS1_SC_
FNDA:0,_ZNSt17_Function_handlerIFvvEZN7testing8internal14FunctionMockerIFiiP17spi_transaction_tEE10InvokeWithEOSt5tupleIJiS5_EEEUlvE0_E9_M_invokeERKSt9_Any_data
FNDA:0,_ZNSt17_Function_handlerIFvvEZN7testing8internal14FunctionMockerIFiiP17spi_transaction_tEE10InvokeWithEOSt5tupleIJiS5_EEEUlvE_E9_M_invokeERKSt9_Any_data
FNDA:0,_ZNSt17_Function_handlerIFvvEZN7testing8internal14FunctionMockerIFiiPKiPiEE10InvokeWithEOSt5tupleIJiS5_S6_EEEUlvE0_E9_M_invokeERKSt9_Any_data
FNDA:0,_ZNSt17_Function_handlerIFvvEZN7testing8internal14FunctionMockerIFiiPKiPiEE10InvokeWithEOSt5tupleIJiS5_S6_EEEUlvE_E9_M_invokeERKSt9_Any_data
FNDA:0,_ZNSt17_Function_handlerIFvvEZN7testing8internal14FunctionMockerIFiiPKiiEE10InvokeWithEOSt5tupleIJiS5_iEEEUlvE0_E9_M_invokeERKSt9_Any_data
FNDA:0,_ZNSt17_Function_handlerIFvvEZN7testing8internal14FunctionMockerIFiiPKiiEE10InvokeWithEOSt5tupleIJiS5_iEEEUlvE_E9_M_invokeERKSt9_Any_data
FNDA:2,_ZNSt8functionIFiiPKiiEEC2Ev
FNDA:0,_ZNSt8functionIFiiP17spi_transaction_tEEC2ERKS3_
FNDA:0,_ZNSt8functionIFiiPKiPiEEC2ERKS4_
FNDA:1,_ZNSt8functionIFiiPKiiEEC2ERKS3_
FNDA:2,_ZNSt8functionIFiiPKiiEEC2EOS3_
FNDA:0,_ZNSt8functionIFvvEEC2EOS1_
FNDA:1,_ZNSt8functionIFiiPKiiEEC2IN7testing10OnceActionIS2_E18StdFunctionAdaptorINS7_23IgnoreIncomingArgumentsINS5_8internal12ReturnActionIiE4ImplIiEEEEEEvEEOT_
FNDA:1,_ZNSt8functionIFiiPKiiEEC2IN7testing8internal16TypedExpectationIS2_E13ActionAdaptorEvEEOT_
FNDA:0,_ZNSt8functionIFvvEEC2IZN7testing8internal14FunctionMockerIFiiP17spi_transaction_tEE10InvokeWithEOSt5tupleIJiS7_EEEUlvE0_vEEOT_
FNDA:0,_ZNSt8functionIFvvEEC2IZN7testing8internal14FunctionMockerIFiiP17spi_transaction_tEE10InvokeWithEOSt5tupleIJiS7_EEEUlvE_vEEOT_
FNDA:0,_ZNSt8functionIFvvEEC2IZN7testing8internal14FunctionMockerIFiiPKiPiEE10InvokeWithEOSt5tupleIJiS7_S8_EEEUlvE0_vEEOT_
FNDA:0,_ZNSt8functionIFvvEEC2IZN7testing8internal14FunctionMockerIFiiPKiPiEE10InvokeWithEOSt5tupleIJiS7_S8_EEEUlvE_vEEOT_
FNDA:0,_ZNSt8functionIFvvEEC2IZN7testing8internal14FunctionMockerIFiiPKiiEE10InvokeWithEOSt5tupleIJiS7_iEEEUlvE0_vEEOT_
FNDA:0,_ZNSt8functionIFvvEEC2IZN7testing8internal14FunctionMockerIFiiPKiiEE10InvokeWithEOSt5tupleIJiS7_iEEEUlvE_vEEOT_
FNDA:1,_ZNSt8functionIFiiPKiiEEaSIN7testing8internal16TypedExpectationIS2_E13ActionAdaptorEEENSt9enable_ifIXsrNS3_9_CallableIT_NSA_IXntsrSt7is_sameINSt9remove_cvINSt16remove_referenceISC_E4typeEE4typeES3_E5valueESt5decayISC_EE4type4typeESt15__invoke_resultIRSP_JiS1_iEEEE5valueERS3_E4typeEOSC_
FNDA:1,_ZNSt8functionIFiiPKiiEE4swapERS3_
FNDA:0,_ZNKSt8functionIFiiP17spi_transaction_tEEcvbEv
FNDA:0,_ZNKSt8functionIFiiPKiPiEEcvbEv
FNDA:5,_ZNKSt8functionIFiiPKiiEEcvbEv
FNDA:0,_ZNKSt8functionIFvvEEcvbEv
FNDA:0,_ZNKSt8functionIFiiP17spi_transaction_tEEclEiS1_
FNDA:0,_ZNKSt8functionIFiiPKiPiEEclEiS1_S2_
FNDA:2,_ZNKSt8functionIFiiPKiiEEclEiS1_i
FNDA:0,_ZNKSt8functionIFvvEEclEv
FNDA:0,_ZSteqIiJiP17spi_transaction_tEEbRKSt8functionIFT_DpT0_EEDn
FNDA:0,_ZSteqIiJiPKiPiEEbRKSt8functionIFT_DpT0_EEDn
FNDA:2,_ZSteqIiJiPKiiEEbRKSt8functionIFT_DpT0_EEDn
FNDA:6,_ZNSt9_Any_data9_M_accessEv
FNDA:3,_ZNKSt9_Any_data9_M_accessEv
FNDA:0,_ZNSt9_Any_data9_M_accessIPKSt9type_infoEERT_v
FNDA:2,_ZNSt9_Any_data9_M_accessIPN7testing10OnceActionIFiiPKiiEE18StdFunctionAdaptorINS6_23IgnoreIncomingArgumentsINS1_8internal12ReturnActionIiE4ImplIiEEEEEEEERT_v
FNDA:4,_ZNSt9_Any_data9_M_accessIPN7testing8internal16TypedExpectationIFiiPKiiEE13ActionAdaptorEEERT_v
FNDA:0,_ZNSt9_Any_data9_M_accessIPZN7testing8internal14FunctionMockerIFiiP17spi_transaction_tEE10InvokeWithEOSt5tupleIJiS5_EEEUlvE0_EERT_v
FNDA:0,_ZNSt9_Any_data9_M_accessIPZN7testing8internal14FunctionMockerIFiiP17spi_transaction_tEE10InvokeWithEOSt5tupleIJiS5_EEEUlvE_EERT_v
FNDA:0,_ZNSt9_Any_data9_M_accessIPZN7testing8internal14FunctionMockerIFiiPKiPiEE10InvokeWithEOSt5tupleIJiS5_S6_EEEUlvE0_EERT_v
FNDA:0,_ZNSt9_Any_data9_M_accessIPZN7testing8internal14FunctionMockerIFiiPKiPiEE10InvokeWithEOSt5tupleIJiS5_S6_EEEUlvE_EERT_v
FNDA:0,_ZNSt9_Any_data9_M_accessIPZN7testing8internal14FunctionMockerIFiiPKiiEE10InvokeWithEOSt5tupleIJiS5_iEEEUlvE0_EERT_v
FNDA:0,_ZNSt9_Any_data9_M_accessIPZN7testing8internal14FunctionMockerIFiiPKiiEE10InvokeWithEOSt5tupleIJiS5_iEEEUlvE_EERT_v
FNDA:0,_ZNSt9_Any_data9_M_accessIZN7testing8internal14FunctionMockerIFiiP17spi_transaction_tEE10InvokeWithEOSt5tupleIJiS5_EEEUlvE_EERT_v
FNDA:0,_ZNSt9_Any_data9_M_accessIZN7testing8internal14FunctionMockerIFiiPKiPiEE10InvokeWithEOSt5tupleIJiS5_S6_EEEUlvE_EERT_v
FNDA:0,_ZNSt9_Any_data9_M_accessIZN7testing8internal14FunctionMockerIFiiPKiiEE10InvokeWithEOSt5tupleIJiS5_iEEEUlvE_EERT_v
FNDA:1,_ZNKSt9_Any_data9_M_accessIPN7testing10OnceActionIFiiPKiiEE18StdFunctionAdaptorINS6_23IgnoreIncomingArgumentsINS1_8internal12ReturnActionIiE4ImplIiEEEEEEEERKT_v
FNDA:2,_ZNKSt9_Any_data9_M_accessIPN7testing8internal16TypedExpectationIFiiPKiiEE13ActionAdaptorEEERKT_v
FNDA:0,_ZNKSt9_Any_data9_M_accessIPZN7testing8internal14FunctionMockerIFiiP17spi_transaction_tEE10InvokeWithEOSt5tupleIJiS5_EEEUlvE0_EERKT_v
FNDA:0,_ZNKSt9_Any_data9_M_accessIPZN7testing8internal14FunctionMockerIFiiPKiPiEE10InvokeWithEOSt5tupleIJiS5_S6_EEEUlvE0_EERKT_v
FNDA:0,_ZNKSt9_Any_data9_M_accessIPZN7testing8internal14FunctionMockerIFiiPKiiEE10InvokeWithEOSt5tupleIJiS5_iEEEUlvE0_EERKT_v
FNDA:0,_ZNKSt9_Any_data9_M_accessIZN7testing8internal14FunctionMockerIFiiP17spi_transaction_tEE10InvokeWithEOSt5tupleIJiS5_EEEUlvE_EERKT_v
FNDA:0,_ZNKSt9_Any_data9_M_accessIZN7testing8internal14FunctionMockerIFiiPKiPiEE10InvokeWithEOSt5tupleIJiS5_S6_EEEUlvE_EERKT_v
FNDA:0,_ZNKSt9_Any_data9_M_accessIZN7testing8internal14FunctionMockerIFiiPKiiEE10InvokeWithEOSt5tupleIJiS5_iEEEUlvE_EERKT_v
FNF:132
FNH:37
DA:85,6
DA:86,3
DA:90,6
DA:91,6
DA:95,3
DA:96,3
DA:134,3
DA:138,0
DA:139,0
DA:142,3
DA:150,0
DA:152,0
DA:153,0
DA:158,3
DA:160,3
DA:161,3
DA:162,3
DA:166,0
DA:168,0
DA:169,0
DA:173,3
DA:175,3
DA:176,3
DA:180,4
DA:183,4
DA:185,0
DA:187,0
DA:191,0
DA:193,0
DA:194,0
DA:195,0
DA:197,1
DA:198,1
DA:199,1
DA:200,1
DA:202,3
DA:203,3
DA:204,3
DA:206,4
DA:211,3
DA:215,3
DA:216,3
DA:235,2
DA:236,2
DA:239,7
DA:241,7
DA:243,7
DA:244,3
DA:245,7
DA:247,7
DA:267,4
DA:270,4
DA:273,0
DA:274,0
DA:275,0
DA:277,0
DA:278,0
DA:279,0
DA:281,4
DA:282,4
DA:284,4
DA:288,2
DA:290,2
DA:291,2
DA:368,2
DA:369,2
DA:386,1
DA:387,1
DA:389,1
DA:391,1
DA:392,1
DA:393,1
DA:395,1
DA:404,2
DA:405,2
DA:407,2
DA:409,2
DA:410,2
DA:411,2
DA:412,2
DA:414,2
DA:435,2
DA:437,2
DA:447,2
DA:449,2
DA:451,2
DA:452,2
DA:454,2
DA:531,1
DA:534,1
DA:535,1
DA:556,1
DA:558,1
DA:559,1
DA:560,1
DA:561,1
DA:573,5
DA:574,5
DA:587,2
DA:589,2
DA:590,0
DA:591,2
DA:737,2
DA:738,2
LF:104
LH:83
end_of_record
TN:
SF:/usr/include/c++/13.2.1/bits/stl_algobase.h
FN:233,241,_ZSt3minImERKT_S2_S2_
FN:257,265,_ZSt3maxImERKT_S2_S2_
FN:316,318,_ZSt12__niter_baseIPPKvET_S3_
FN:316,318,_ZSt12__niter_baseIPSt10shared_ptrIN7testing8internal15ExpectationBaseEEET_S6_
FN:338,339,_ZSt12__niter_wrapIPPKvET_RKS3_S3_
FN:422,423,_ZNSt11__copy_moveILb1ELb0ESt26random_access_iterator_tagE12__assign_oneIPKvS4_EEvPT_PT0_
FN:433,442,_ZNSt11__copy_moveILb1ELb1ESt26random_access_iterator_tagE8__copy_mIPKvS4_EEPT0_PT_S8_S6_
FN:497,507,_ZSt14__copy_move_a2ILb1EPPKvS2_ET1_T0_S4_S3_
FN:532,533,_ZSt14__copy_move_a1ILb1EPPKvS2_ET1_T0_S4_S3_
FN:538,544,_ZSt13__copy_move_aILb1EPPKvS2_ET1_T0_S4_S3_
FN:624,634,_ZSt4copyISt13move_iteratorIPPKvES3_ET0_T_S6_S5_
FNDA:33,_ZSt3minImERKT_S2_S2_
FNDA:14,_ZSt3maxImERKT_S2_S2_
FNDA:6,_ZSt12__niter_baseIPPKvET_S3_
FNDA:6,_ZSt12__niter_baseIPSt10shared_ptrIN7testing8internal15ExpectationBaseEEET_S6_
FNDA:0,_ZSt12__niter_wrapIPPKvET_RKS3_S3_
FNDA:0,_ZNSt11__copy_moveILb1ELb0ESt26random_access_iterator_tagE12__assign_oneIPKvS4_EEvPT_PT0_
FNDA:0,_ZNSt11__copy_moveILb1ELb1ESt26random_access_iterator_tagE8__copy_mIPKvS4_EEPT0_PT_S8_S6_
FNDA:0,_ZSt14__copy_move_a2ILb1EPPKvS2_ET1_T0_S4_S3_
FNDA:0,_ZSt14__copy_move_a1ILb1EPPKvS2_ET1_T0_S4_S3_
FNDA:0,_ZSt13__copy_move_aILb1EPPKvS2_ET1_T0_S4_S3_
FNDA:0,_ZSt4copyISt13move_iteratorIPPKvES3_ET0_T_S6_S5_
FNF:11
FNH:4
DA:233,33
DA:238,33
DA:239,0
DA:240,33
DA:257,14
DA:262,14
DA:263,12
DA:264,2
DA:316,12
DA:318,12
DA:338,0
DA:339,0
DA:422,0
DA:423,0
DA:433,0
DA:435,0
DA:436,0
DA:437,0
DA:438,0
DA:440,0
DA:441,0
DA:497,0
DA:506,0
DA:532,0
DA:533,0
DA:538,0
DA:540,0
DA:543,0
DA:624,0
DA:633,0
LF:30
LH:9
end_of_record
TN:
SF:/usr/include/c++/13.2.1/bits/stl_construct.h
FN:109,120,_ZSt10_ConstructIN7testing10OnceActionIFiiPKiiEE23IgnoreIncomingArgumentsINS0_8internal12ReturnActionIiE4ImplIiEEEEJSC_EEvPT_DpOT0_
FN:109,120,_ZSt10_ConstructIN7testing10OnceActionIFiiPKiiEEEJS5_EEvPT_DpOT0_
FN:109,120,_ZSt10_ConstructISt10shared_ptrIN7testing8internal15ExpectationBaseEEJS4_EEvPT_DpOT0_
FN:146,153,_ZSt8_DestroyIN7testing10OnceActionIFiiPKiiEE23IgnoreIncomingArgumentsINS0_8internal12ReturnActionIiE4ImplIiEEEEEvPT_
FN:146,153,_ZSt8_DestroyIN7testing10OnceActionIFiiPKiiEEEEvPT_
FN:146,153,_ZSt8_DestroyISt10shared_ptrIN7testing8internal15ExpectationBaseEEEvPT_
FN:160,164,_ZNSt12_Destroy_auxILb0EE9__destroyIPSt10shared_ptrIN7testing8internal15ExpectationBaseEEEEvT_S8_
FN:172,172,_ZNSt12_Destroy_auxILb1EE9__destroyIPPKvEEvT_S5_
FN:182,197,_ZSt8_DestroyIPPKvEvT_S3_
FN:182,197,_ZSt8_DestroyIPSt10shared_ptrIN7testing8internal15ExpectationBaseEEEvT_S6_
FNDA:1,_ZSt10_ConstructIN7testing10OnceActionIFiiPKiiEE23IgnoreIncomingArgumentsINS0_8internal12ReturnActionIiE4ImplIiEEEEJSC_EEvPT_DpOT0_
FNDA:1,_ZSt10_ConstructIN7testing10OnceActionIFiiPKiiEEEJS5_EEvPT_DpOT0_
FNDA:0,_ZSt10_ConstructISt10shared_ptrIN7testing8internal15ExpectationBaseEEJS4_EEvPT_DpOT0_
FNDA:1,_ZSt8_DestroyIN7testing10OnceActionIFiiPKiiEE23IgnoreIncomingArgumentsINS0_8internal12ReturnActionIiE4ImplIiEEEEEvPT_
FNDA:1,_ZSt8_DestroyIN7testing10OnceActionIFiiPKiiEEEEvPT_
FNDA:1,_ZSt8_DestroyISt10shared_ptrIN7testing8internal15ExpectationBaseEEEvPT_
FNDA:7,_ZNSt12_Destroy_auxILb0EE9__destroyIPSt10shared_ptrIN7testing8internal15ExpectationBaseEEEEvT_S8_
FNDA:7,_ZNSt12_Destroy_auxILb1EE9__destroyIPPKvEEvT_S5_
FNDA:7,_ZSt8_DestroyIPPKvEvT_S3_
FNDA:7,_ZSt8_DestroyIPSt10shared_ptrIN7testing8internal15ExpectationBaseEEEvT_S6_
FNF:10
FNH:9
DA:109,2
DA:119,2
DA:120,2
DA:146,3
DA:151,3
DA:153,3
DA:160,7
DA:162,8
DA:163,1
DA:164,7
DA:172,7
DA:182,14
DA:196,14
DA:197,14
LF:14
LH:14
end_of_record
TN:
SF:/usr/include/c++/13.2.1/bits/stl_iterator.h
FN:1076,1077,_ZN9__gnu_cxx17__normal_iteratorIPKPKvSt6vectorIS2_SaIS2_EEEC2ERKS4_
FN:1076,1077,_ZN9__gnu_cxx17__normal_iteratorIPKSt10shared_ptrIN7testing8internal15ExpectationBaseEESt6vectorIS5_SaIS5_EEEC2ERKS7_
FN:1076,1077,_ZN9__gnu_cxx17__normal_iteratorIPPKvSt6vectorIS2_SaIS2_EEEC2ERKS3_
FN:1076,1077,_ZN9__gnu_cxx17__normal_iteratorIPSt10shared_ptrIN7testing8internal15ExpectationBaseEESt6vectorIS5_SaIS5_EEEC2ERKS6_
FN:1083,1094,_ZN9__gnu_cxx17__normal_iteratorIPKPKvSt6vectorIS2_SaIS2_EEEC2IPS2_vEERKNS0_IT_S7_EE
FN:1099,1100,_ZNK9__gnu_cxx17__normal_iteratorIPKPKvSt6vectorIS2_SaIS2_EEEdeEv
FN:1104,1105,_ZNK9__gnu_cxx17__normal_iteratorIPKSt10shared_ptrIN7testing8internal15ExpectationBaseEESt6vectorIS5_SaIS5_EEEptEv
FN:1109,1113,_ZN9__gnu_cxx17__normal_iteratorIPKPKvSt6vectorIS2_SaIS2_EEEppEv
FN:1123,1127,_ZN9__gnu_cxx17__normal_iteratorIPKPKvSt6vectorIS2_SaIS2_EEEmmEv
FN:1123,1127,_ZN9__gnu_cxx17__normal_iteratorIPKSt10shared_ptrIN7testing8internal15ExpectationBaseEESt6vectorIS5_SaIS5_EEEmmEv
FN:1162,1163,_ZNK9__gnu_cxx17__normal_iteratorIPKPKvSt6vectorIS2_SaIS2_EEE4baseEv
FN:1162,1163,_ZNK9__gnu_cxx17__normal_iteratorIPKSt10shared_ptrIN7testing8internal15ExpectationBaseEESt6vectorIS5_SaIS5_EEE4baseEv
FN:1162,1163,_ZNK9__gnu_cxx17__normal_iteratorIPPKvSt6vectorIS2_SaIS2_EEE4baseEv
FN:1162,1163,_ZNK9__gnu_cxx17__normal_iteratorIPSt10shared_ptrIN7testing8internal15ExpectationBaseEESt6vectorIS5_SaIS5_EEE4baseEv
FN:1225,1228,_ZN9__gnu_cxxeqIPKPKvSt6vectorIS2_SaIS2_EEEEbRKNS_17__normal_iteratorIT_T0_EESD_
FN:1225,1228,_ZN9__gnu_cxxeqIPKSt10shared_ptrIN7testing8internal15ExpectationBaseEESt6vectorIS5_SaIS5_EEEEbRKNS_17__normal_iteratorIT_T0_EESG_
FN:1233,1236,_ZN9__gnu_cxxneIPKPKvPS2_St6vectorIS2_SaIS2_EEEEbRKNS_17__normal_iteratorIT_T1_EERKNS9_IT0_SB_EE
FN:1334,1337,_ZN9__gnu_cxxmiIPPKvSt6vectorIS2_SaIS2_EEEENS_17__normal_iteratorIT_T0_E15difference_typeERKSA_SD_
FN:1334,1337,_ZN9__gnu_cxxmiIPSt10shared_ptrIN7testing8internal15ExpectationBaseEESt6vectorIS5_SaIS5_EEEENS_17__normal_iteratorIT_T0_E15difference_typeERKSD_SG_
FN:1519,1520,_ZNSt13move_iteratorIPPKvEC2ES2_
FN:1519,1520,_ZNSt13move_iteratorIPSt10shared_ptrIN7testing8internal15ExpectationBaseEEEC2ES5_
FN:1545,1546,_ZNKSt13move_iteratorIPPKvE4baseEv
FN:1545,1546,_ZNKSt13move_iteratorIPSt10shared_ptrIN7testing8internal15ExpectationBaseEEE4baseEv
FN:1561,1565,_ZNKSt13move_iteratorIPSt10shared_ptrIN7testing8internal15ExpectationBaseEEEdeEv
FN:1574,1578,_ZNSt13move_iteratorIPSt10shared_ptrIN7testing8internal15ExpectationBaseEEEppEv
FN:1748,1750,_ZSteqIPSt10shared_ptrIN7testing8internal15ExpectationBaseEEEbRKSt13move_iteratorIT_ESA_
FN:1763,1765,_ZStneIPSt10shared_ptrIN7testing8internal15ExpectationBaseEEEbRKSt13move_iteratorIT_ESA_
FN:1832,1833,_ZSt32__make_move_if_noexcept_iteratorIPKvSt13move_iteratorIPS1_EET0_PT_
FN:1832,1833,_ZSt32__make_move_if_noexcept_iteratorISt10shared_ptrIN7testing8internal15ExpectationBaseEESt13move_iteratorIPS4_EET0_PT_
FN:195,198,_ZNSt16reverse_iteratorIN9__gnu_cxx17__normal_iteratorIPKPKvSt6vectorIS3_SaIS3_EEEEEC2ES9_
FN:195,198,_ZNSt16reverse_iteratorIN9__gnu_cxx17__normal_iteratorIPKSt10shared_ptrIN7testing8internal15ExpectationBaseEESt6vectorIS6_SaIS6_EEEEEC2ESC_
FN:248,250,_ZNKSt16reverse_iteratorIN9__gnu_cxx17__normal_iteratorIPKPKvSt6vectorIS3_SaIS3_EEEEE4baseEv
FN:248,250,_ZNKSt16reverse_iteratorIN9__gnu_cxx17__normal_iteratorIPKSt10shared_ptrIN7testing8internal15ExpectationBaseEESt6vectorIS6_SaIS6_EEEEE4baseEv
FN:264,268,_ZNKSt16reverse_iteratorIN9__gnu_cxx17__normal_iteratorIPKPKvSt6vectorIS3_SaIS3_EEEEEdeEv
FN:277,288,_ZNKSt16reverse_iteratorIN9__gnu_cxx17__normal_iteratorIPKSt10shared_ptrIN7testing8internal15ExpectationBaseEESt6vectorIS6_SaIS6_EEEEEptEv
FN:296,300,_ZNSt16reverse_iteratorIN9__gnu_cxx17__normal_iteratorIPKPKvSt6vectorIS3_SaIS3_EEEEEppEv
FN:296,300,_ZNSt16reverse_iteratorIN9__gnu_cxx17__normal_iteratorIPKSt10shared_ptrIN7testing8internal15ExpectationBaseEESt6vectorIS6_SaIS6_EEEEEppEv
FN:2968,2970,_ZSt12__miter_baseIPPKvEDTcl12__miter_basecldtfp_4baseEEESt13move_iteratorIT_E
FN:430,431,_ZNSt16reverse_iteratorIN9__gnu_cxx17__normal_iteratorIPKSt10shared_ptrIN7testing8internal15ExpectationBaseEESt6vectorIS6_SaIS6_EEEEE13_S_to_pointerISC_EES8_T_
FN:448,450,_ZSteqIN9__gnu_cxx17__normal_iteratorIPKPKvSt6vectorIS3_SaIS3_EEEEEbRKSt16reverse_iteratorIT_ESE_
FN:448,450,_ZSteqIN9__gnu_cxx17__normal_iteratorIPKSt10shared_ptrIN7testing8internal15ExpectationBaseEESt6vectorIS6_SaIS6_EEEEEbRKSt16reverse_iteratorIT_ESH_
FN:462,464,_ZStneIN9__gnu_cxx17__normal_iteratorIPKPKvSt6vectorIS3_SaIS3_EEEEEbRKSt16reverse_iteratorIT_ESE_
FN:462,464,_ZStneIN9__gnu_cxx17__normal_iteratorIPKSt10shared_ptrIN7testing8internal15ExpectationBaseEESt6vectorIS6_SaIS6_EEEEEbRKSt16reverse_iteratorIT_ESH_
FNDA:0,_ZN9__gnu_cxx17__normal_iteratorIPKPKvSt6vectorIS2_SaIS2_EEEC2ERKS4_
FNDA:2,_ZN9__gnu_cxx17__normal_iteratorIPKSt10shared_ptrIN7testing8internal15ExpectationBaseEESt6vectorIS5_SaIS5_EEEC2ERKS7_
FNDA:11,_ZN9__gnu_cxx17__normal_iteratorIPPKvSt6vectorIS2_SaIS2_EEEC2ERKS3_
FNDA:9,_ZN9__gnu_cxx17__normal_iteratorIPSt10shared_ptrIN7testing8internal15ExpectationBaseEESt6vectorIS5_SaIS5_EEEC2ERKS6_
FNDA:4,_ZN9__gnu_cxx17__normal_iteratorIPKPKvSt6vectorIS2_SaIS2_EEEC2IPS2_vEERKNS0_IT_S7_EE
FNDA:1,_ZNK9__gnu_cxx17__normal_iteratorIPKPKvSt6vectorIS2_SaIS2_EEEdeEv
FNDA:2,_ZNK9__gnu_cxx17__normal_iteratorIPKSt10shared_ptrIN7testing8internal15ExpectationBaseEESt6vectorIS5_SaIS5_EEEptEv
FNDA:1,_ZN9__gnu_cxx17__normal_iteratorIPKPKvSt6vectorIS2_SaIS2_EEEppEv
FNDA:0,_ZN9__gnu_cxx17__normal_iteratorIPKPKvSt6vectorIS2_SaIS2_EEEmmEv
FNDA:1,_ZN9__gnu_cxx17__normal_iteratorIPKSt10shared_ptrIN7testing8internal15ExpectationBaseEESt6vectorIS5_SaIS5_EEEmmEv
FNDA:5,_ZNK9__gnu_cxx17__normal_iteratorIPKPKvSt6vectorIS2_SaIS2_EEE4baseEv
FNDA:6,_ZNK9__gnu_cxx17__normal_iteratorIPKSt10shared_ptrIN7testing8internal15ExpectationBaseEESt6vectorIS5_SaIS5_EEE4baseEv
FNDA:13,_ZNK9__gnu_cxx17__normal_iteratorIPPKvSt6vectorIS2_SaIS2_EEE4baseEv
FNDA:11,_ZNK9__gnu_cxx17__normal_iteratorIPSt10shared_ptrIN7testing8internal15ExpectationBaseEESt6vectorIS5_SaIS5_EEE4baseEv
FNDA:0,_ZN9__gnu_cxxeqIPKPKvSt6vectorIS2_SaIS2_EEEEbRKNS_17__normal_iteratorIT_T0_EESD_
FNDA:1,_ZN9__gnu_cxxeqIPKSt10shared_ptrIN7testing8internal15ExpectationBaseEESt6vectorIS5_SaIS5_EEEEbRKNS_17__normal_iteratorIT_T0_EESG_
FNDA:5,_ZN9__gnu_cxxneIPKPKvPS2_St6vectorIS2_SaIS2_EEEEbRKNS_17__normal_iteratorIT_T1_EERKNS9_IT0_SB_EE
FNDA:1,_ZN9__gnu_cxxmiIPPKvSt6vectorIS2_SaIS2_EEEENS_17__normal_iteratorIT_T0_E15difference_typeERKSA_SD_
FNDA:1,_ZN9__gnu_cxxmiIPSt10shared_ptrIN7testing8internal15ExpectationBaseEESt6vectorIS5_SaIS5_EEEENS_17__normal_iteratorIT_T0_E15difference_typeERKSD_SG_
FNDA:0,_ZNSt13move_iteratorIPPKvEC2ES2_
FNDA:0,_ZNSt13move_iteratorIPSt10shared_ptrIN7testing8internal15ExpectationBaseEEEC2ES5_
FNDA:0,_ZNKSt13move_iteratorIPPKvE4baseEv
FNDA:0,_ZNKSt13move_iteratorIPSt10shared_ptrIN7testing8internal15ExpectationBaseEEE4baseEv
FNDA:0,_ZNKSt13move_iteratorIPSt10shared_ptrIN7testing8internal15ExpectationBaseEEEdeEv
FNDA:0,_ZNSt13move_iteratorIPSt10shared_ptrIN7testing8internal15ExpectationBaseEEEppEv
FNDA:0,_ZSteqIPSt10shared_ptrIN7testing8internal15ExpectationBaseEEEbRKSt13move_iteratorIT_ESA_
FNDA:0,_ZStneIPSt10shared_ptrIN7testing8internal15ExpectationBaseEEEbRKSt13move_iteratorIT_ESA_
FNDA:0,_ZSt32__make_move_if_noexcept_iteratorIPKvSt13move_iteratorIPS1_EET0_PT_
FNDA:0,_ZSt32__make_move_if_noexcept_iteratorISt10shared_ptrIN7testing8internal15ExpectationBaseEESt13move_iteratorIPS4_EET0_PT_
FNDA:0,_ZNSt16reverse_iteratorIN9__gnu_cxx17__normal_iteratorIPKPKvSt6vectorIS3_SaIS3_EEEEEC2ES9_
FNDA:2,_ZNSt16reverse_iteratorIN9__gnu_cxx17__normal_iteratorIPKSt10shared_ptrIN7testing8internal15ExpectationBaseEESt6vectorIS6_SaIS6_EEEEEC2ESC_
FNDA:0,_ZNKSt16reverse_iteratorIN9__gnu_cxx17__normal_iteratorIPKPKvSt6vectorIS3_SaIS3_EEEEE4baseEv
FNDA:2,_ZNKSt16reverse_iteratorIN9__gnu_cxx17__normal_iteratorIPKSt10shared_ptrIN7testing8internal15ExpectationBaseEESt6vectorIS6_SaIS6_EEEEE4baseEv
FNDA:0,_ZNKSt16reverse_iteratorIN9__gnu_cxx17__normal_iteratorIPKPKvSt6vectorIS3_SaIS3_EEEEEdeEv
FNDA:1,_ZNKSt16reverse_iteratorIN9__gnu_cxx17__normal_iteratorIPKSt10shared_ptrIN7testing8internal15ExpectationBaseEESt6vectorIS6_SaIS6_EEEEEptEv
FNDA:0,_ZNSt16reverse_iteratorIN9__gnu_cxx17__normal_iteratorIPKPKvSt6vectorIS3_SaIS3_EEEEEppEv
FNDA:0,_ZNSt16reverse_iteratorIN9__gnu_cxx17__normal_iteratorIPKSt10shared_ptrIN7testing8internal15ExpectationBaseEESt6vectorIS6_SaIS6_EEEEEppEv
FNDA:0,_ZSt12__miter_baseIPPKvEDTcl12__miter_basecldtfp_4baseEEESt13move_iteratorIT_E
FNDA:1,_ZNSt16reverse_iteratorIN9__gnu_cxx17__normal_iteratorIPKSt10shared_ptrIN7testing8internal15ExpectationBaseEESt6vectorIS6_SaIS6_EEEEE13_S_to_pointerISC_EES8_T_
FNDA:0,_ZSteqIN9__gnu_cxx17__normal_iteratorIPKPKvSt6vectorIS3_SaIS3_EEEEEbRKSt16reverse_iteratorIT_ESE_
FNDA:1,_ZSteqIN9__gnu_cxx17__normal_iteratorIPKSt10shared_ptrIN7testing8internal15ExpectationBaseEESt6vectorIS6_SaIS6_EEEEEbRKSt16reverse_iteratorIT_ESH_
FNDA:0,_ZStneIN9__gnu_cxx17__normal_iteratorIPKPKvSt6vectorIS3_SaIS3_EEEEEbRKSt16reverse_iteratorIT_ESE_
FNDA:1,_ZStneIN9__gnu_cxx17__normal_iteratorIPKSt10shared_ptrIN7testing8internal15ExpectationBaseEESt6vectorIS6_SaIS6_EEEEEbRKSt16reverse_iteratorIT_ESH_
FNF:43
FNH:22
DA:195,2
DA:197,2
DA:198,2
DA:248,2
DA:250,2
DA:264,0
DA:266,0
DA:267,0
DA:277,1
DA:285,1
DA:286,1
DA:287,1
DA:296,0
DA:298,0
DA:299,0
DA:430,1
DA:431,1
DA:448,1
DA:450,1
DA:462,1
DA:464,1
DA:1076,22
DA:1077,22
DA:1083,4
DA:1094,4
DA:1099,1
DA:1100,1
DA:1104,2
DA:1105,2
DA:1109,1
DA:1111,1
DA:1112,1
DA:1123,1
DA:1125,1
DA:1126,1
DA:1162,35
DA:1163,35
DA:1225,1
DA:1228,1
DA:1233,5
DA:1236,5
DA:1334,2
DA:1337,2
DA:1519,0
DA:1520,0
DA:1545,0
DA:1546,0
DA:1561,0
DA:1565,0
DA:1574,0
DA:1576,0
DA:1577,0
DA:1748,0
DA:1750,0
DA:1763,0
DA:1765,0
DA:1832,0
DA:1833,0
DA:2968,0
DA:2970,0
LF:60
LH:37
end_of_record
TN:
SF:/usr/include/c++/13.2.1/bits/stl_iterator_base_funcs.h
FNF:0
FNH:0
DA:106,0
DA:151,0
DA:152,0
LF:3
LH:0
end_of_record
TN:
SF:/usr/include/c++/13.2.1/bits/stl_iterator_base_types.h
FNF:0
FNH:0
DA:240,0
LF:1
LH:0
end_of_record
TN:
SF:/usr/include/c++/13.2.1/bits/stl_set.h
FN:169,169,_ZNSt3setIN7testing11ExpectationENS1_4LessESaIS1_EEC2Ev
FN:283,283,_ZNSt3setIN7testing11ExpectationENS1_4LessESaIS1_EED2Ev
FN:346,347,_ZNKSt3setIN7testing11ExpectationENS1_4LessESaIS1_EE5beginEv
FN:355,356,_ZNKSt3setIN7testing11ExpectationENS1_4LessESaIS1_EE3endEv
FNDA:1,_ZNSt3setIN7testing11ExpectationENS1_4LessESaIS1_EEC2Ev
FNDA:1,_ZNSt3setIN7testing11ExpectationENS1_4LessESaIS1_EED2Ev
FNDA:2,_ZNKSt3setIN7testing11ExpectationENS1_4LessESaIS1_EE5beginEv
FNDA:2,_ZNKSt3setIN7testing11ExpectationENS1_4LessESaIS1_EE3endEv
FNF:4
FNH:4
DA:169,1
DA:283,1
DA:346,2
DA:347,2
DA:355,2
DA:356,2
LF:6
LH:6
end_of_record
TN:
SF:/usr/include/c++/13.2.1/bits/stl_tree.h
FN:1001,1002,_ZNKSt8_Rb_treeIN7testing11ExpectationES1_St9_IdentityIS1_ENS1_4LessESaIS1_EE5beginEv
FN:1009,1010,_ZNKSt8_Rb_treeIN7testing11ExpectationES1_St9_IdentityIS1_ENS1_4LessESaIS1_EE3endEv
FN:146,150,_ZNSt20_Rb_tree_key_compareIN7testing11Expectation4LessEEC2Ev
FN:173,177,_ZNSt15_Rb_tree_headerC2Ev
FN:1930,1941,_ZNSt8_Rb_treeIN7testing11ExpectationES1_St9_IdentityIS1_ENS1_4LessESaIS1_EE8_M_eraseEPSt13_Rb_tree_nodeIS1_E
FN:206,212,_ZNSt15_Rb_tree_header8_M_resetEv
FN:234,235,_ZNSt13_Rb_tree_nodeIN7testing11ExpectationEE9_M_valptrEv
FN:238,239,_ZNKSt13_Rb_tree_nodeIN7testing11ExpectationEE9_M_valptrEv
FN:347,348,_ZNSt23_Rb_tree_const_iteratorIN7testing11ExpectationEEC2EPKSt18_Rb_tree_node_base
FN:362,363,_ZNKSt23_Rb_tree_const_iteratorIN7testing11ExpectationEEptEv
FN:366,370,_ZNSt23_Rb_tree_const_iteratorIN7testing11ExpectationEEppEv
FN:401,402,_ZStneRKSt23_Rb_tree_const_iteratorIN7testing11ExpectationEES4_
FN:549,550,_ZNSt8_Rb_treeIN7testing11ExpectationES1_St9_IdentityIS1_ENS1_4LessESaIS1_EE21_M_get_Node_allocatorEv
FN:566,567,_ZNSt8_Rb_treeIN7testing11ExpectationES1_St9_IdentityIS1_ENS1_4LessESaIS1_EE11_M_put_nodeEPSt13_Rb_tree_nodeIS1_E
FN:620,628,_ZNSt8_Rb_treeIN7testing11ExpectationES1_St9_IdentityIS1_ENS1_4LessESaIS1_EE15_M_destroy_nodeEPSt13_Rb_tree_nodeIS1_E
FN:631,635,_ZNSt8_Rb_treeIN7testing11ExpectationES1_St9_IdentityIS1_ENS1_4LessESaIS1_EE12_M_drop_nodeEPSt13_Rb_tree_nodeIS1_E
FN:669,674,_ZNSt8_Rb_treeIN7testing11ExpectationES1_St9_IdentityIS1_ENS1_4LessESaIS1_EE13_Rb_tree_implIS4_Lb1EEC2Ev
FN:736,737,_ZNKSt8_Rb_treeIN7testing11ExpectationES1_St9_IdentityIS1_ENS1_4LessESaIS1_EE9_M_mbeginEv
FN:740,741,_ZNSt8_Rb_treeIN7testing11ExpectationES1_St9_IdentityIS1_ENS1_4LessESaIS1_EE8_M_beginEv
FN:781,782,_ZNSt8_Rb_treeIN7testing11ExpectationES1_St9_IdentityIS1_ENS1_4LessESaIS1_EE7_S_leftEPSt18_Rb_tree_node_base
FN:789,790,_ZNSt8_Rb_treeIN7testing11ExpectationES1_St9_IdentityIS1_ENS1_4LessESaIS1_EE8_S_rightEPSt18_Rb_tree_node_base
FN:930,930,_ZNSt8_Rb_treeIN7testing11ExpectationES1_St9_IdentityIS1_ENS1_4LessESaIS1_EEC2Ev
FN:985,986,_ZNSt8_Rb_treeIN7testing11ExpectationES1_St9_IdentityIS1_ENS1_4LessESaIS1_EED2Ev
FNDA:2,_ZNKSt8_Rb_treeIN7testing11ExpectationES1_St9_IdentityIS1_ENS1_4LessESaIS1_EE5beginEv
FNDA:2,_ZNKSt8_Rb_treeIN7testing11ExpectationES1_St9_IdentityIS1_ENS1_4LessESaIS1_EE3endEv
FNDA:1,_ZNSt20_Rb_tree_key_compareIN7testing11Expectation4LessEEC2Ev
FNDA:5,_ZNSt15_Rb_tree_headerC2Ev
FNDA:1,_ZNSt8_Rb_treeIN7testing11ExpectationES1_St9_IdentityIS1_ENS1_4LessESaIS1_EE8_M_eraseEPSt13_Rb_tree_nodeIS1_E
FNDA:6,_ZNSt15_Rb_tree_header8_M_resetEv
FNDA:0,_ZNSt13_Rb_tree_nodeIN7testing11ExpectationEE9_M_valptrEv
FNDA:0,_ZNKSt13_Rb_tree_nodeIN7testing11ExpectationEE9_M_valptrEv
FNDA:4,_ZNSt23_Rb_tree_const_iteratorIN7testing11ExpectationEEC2EPKSt18_Rb_tree_node_base
FNDA:0,_ZNKSt23_Rb_tree_const_iteratorIN7testing11ExpectationEEptEv
FNDA:0,_ZNSt23_Rb_tree_const_iteratorIN7testing11ExpectationEEppEv
FNDA:2,_ZStneRKSt23_Rb_tree_const_iteratorIN7testing11ExpectationEES4_
FNDA:0,_ZNSt8_Rb_treeIN7testing11ExpectationES1_St9_IdentityIS1_ENS1_4LessESaIS1_EE21_M_get_Node_allocatorEv
FNDA:0,_ZNSt8_Rb_treeIN7testing11ExpectationES1_St9_IdentityIS1_ENS1_4LessESaIS1_EE11_M_put_nodeEPSt13_Rb_tree_nodeIS1_E
FNDA:0,_ZNSt8_Rb_treeIN7testing11ExpectationES1_St9_IdentityIS1_ENS1_4LessESaIS1_EE15_M_destroy_nodeEPSt13_Rb_tree_nodeIS1_E
FNDA:0,_ZNSt8_Rb_treeIN7testing11ExpectationES1_St9_IdentityIS1_ENS1_4LessESaIS1_EE12_M_drop_nodeEPSt13_Rb_tree_nodeIS1_E
FNDA:1,_ZNSt8_Rb_treeIN7testing11ExpectationES1_St9_IdentityIS1_ENS1_4LessESaIS1_EE13_Rb_tree_implIS4_Lb1EEC2Ev
FNDA:1,_ZNKSt8_Rb_treeIN7testing11ExpectationES1_St9_IdentityIS1_ENS1_4LessESaIS1_EE9_M_mbeginEv
FNDA:1,_ZNSt8_Rb_treeIN7testing11ExpectationES1_St9_IdentityIS1_ENS1_4LessESaIS1_EE8_M_beginEv
FNDA:0,_ZNSt8_Rb_treeIN7testing11ExpectationES1_St9_IdentityIS1_ENS1_4LessESaIS1_EE7_S_leftEPSt18_Rb_tree_node_base
FNDA:0,_ZNSt8_Rb_treeIN7testing11ExpectationES1_St9_IdentityIS1_ENS1_4LessESaIS1_EE8_S_rightEPSt18_Rb_tree_node_base
FNDA:1,_ZNSt8_Rb_treeIN7testing11ExpectationES1_St9_IdentityIS1_ENS1_4LessESaIS1_EEC2Ev
FNDA:1,_ZNSt8_Rb_treeIN7testing11ExpectationES1_St9_IdentityIS1_ENS1_4LessESaIS1_EED2Ev
FNF:23
FNH:13
DA:146,1
DA:150,1
DA:173,5
DA:174,5
DA:175,5
DA:176,5
DA:177,5
DA:206,6
DA:208,6
DA:209,6
DA:210,6
DA:211,6
DA:212,6
DA:234,0
DA:235,0
DA:238,0
DA:239,0
DA:347,4
DA:348,4
DA:362,0
DA:363,0
DA:366,0
DA:368,0
DA:369,0
DA:401,2
DA:402,2
DA:549,0
DA:550,0
DA:566,0
DA:567,0
DA:620,0
DA:625,0
DA:626,0
DA:628,0
DA:631,0
DA:633,0
DA:634,0
DA:635,0
DA:669,1
DA:673,1
DA:674,1
DA:736,1
DA:737,1
DA:740,1
DA:741,1
DA:781,0
DA:782,0
DA:789,0
DA:790,0
DA:930,1
DA:985,1
DA:986,1
DA:1001,2
DA:1002,2
DA:1009,2
DA:1010,2
DA:1930,1
DA:1934,1
DA:1936,0
DA:1937,0
DA:1938,0
DA:1939,0
DA:1941,1
LF:63
LH:34
end_of_record
TN:
SF:/usr/include/c++/13.2.1/bits/stl_uninitialized.h
FN:1069,1079,_ZSt19__relocate_object_aISt10shared_ptrIN7testing8internal15ExpectationBaseEES4_SaIS4_EEvPT_PT0_RT1_
FN:1091,1108,_ZSt14__relocate_a_1IPSt10shared_ptrIN7testing8internal15ExpectationBaseEES5_SaIS4_EET0_T_S8_S7_RT1_
FN:1114,1134,_ZSt14__relocate_a_1IPKvS1_ENSt9enable_ifIXsrSt24__is_bitwise_relocatableIT_vE5valueEPS4_E4typeES6_S6_S6_RSaIT0_E
FN:113,128,_ZSt16__do_uninit_copyISt13move_iteratorIPSt10shared_ptrIN7testing8internal15ExpectationBaseEEES6_ET0_T_S9_S8_
FN:1141,1150,_ZSt12__relocate_aIPPKvS2_SaIS1_EET0_T_S5_S4_RT1_
FN:1141,1150,_ZSt12__relocate_aIPSt10shared_ptrIN7testing8internal15ExpectationBaseEES5_SaIS4_EET0_T_S8_S7_RT1_
FN:135,137,_ZNSt20__uninitialized_copyILb0EE13__uninit_copyISt13move_iteratorIPSt10shared_ptrIN7testing8internal15ExpectationBaseEEES8_EET0_T_SB_SA_
FN:145,147,_ZNSt20__uninitialized_copyILb1EE13__uninit_copyISt13move_iteratorIPPKvES5_EET0_T_S8_S7_
FN:163,186,_ZSt18uninitialized_copyISt13move_iteratorIPPKvES3_ET0_T_S6_S5_
FN:163,186,_ZSt18uninitialized_copyISt13move_iteratorIPSt10shared_ptrIN7testing8internal15ExpectationBaseEEES6_ET0_T_S9_S8_
FN:366,374,_ZSt22__uninitialized_copy_aISt13move_iteratorIPPKvES3_S2_ET0_T_S6_S5_RSaIT1_E
FN:366,374,_ZSt22__uninitialized_copy_aISt13move_iteratorIPSt10shared_ptrIN7testing8internal15ExpectationBaseEEES6_S5_ET0_T_S9_S8_RSaIT1_E
FN:393,401,_ZSt34__uninitialized_move_if_noexcept_aIPPKvS2_SaIS1_EET0_T_S5_S4_RT1_
FN:393,401,_ZSt34__uninitialized_move_if_noexcept_aIPSt10shared_ptrIN7testing8internal15ExpectationBaseEES5_SaIS4_EET0_T_S8_S7_RT1_
FNDA:0,_ZSt19__relocate_object_aISt10shared_ptrIN7testing8internal15ExpectationBaseEES4_SaIS4_EEvPT_PT0_RT1_
FNDA:2,_ZSt14__relocate_a_1IPSt10shared_ptrIN7testing8internal15ExpectationBaseEES5_SaIS4_EET0_T_S8_S7_RT1_
FNDA:2,_ZSt14__relocate_a_1IPKvS1_ENSt9enable_ifIXsrSt24__is_bitwise_relocatableIT_vE5valueEPS4_E4typeES6_S6_S6_RSaIT0_E
FNDA:0,_ZSt16__do_uninit_copyISt13move_iteratorIPSt10shared_ptrIN7testing8internal15ExpectationBaseEEES6_ET0_T_S9_S8_
FNDA:2,_ZSt12__relocate_aIPPKvS2_SaIS1_EET0_T_S5_S4_RT1_
FNDA:2,_ZSt12__relocate_aIPSt10shared_ptrIN7testing8internal15ExpectationBaseEES5_SaIS4_EET0_T_S8_S7_RT1_
FNDA:0,_ZNSt20__uninitialized_copyILb0EE13__uninit_copyISt13move_iteratorIPSt10shared_ptrIN7testing8internal15ExpectationBaseEEES8_EET0_T_SB_SA_
FNDA:0,_ZNSt20__uninitialized_copyILb1EE13__uninit_copyISt13move_iteratorIPPKvES5_EET0_T_S8_S7_
FNDA:0,_ZSt18uninitialized_copyISt13move_iteratorIPPKvES3_ET0_T_S6_S5_
FNDA:0,_ZSt18uninitialized_copyISt13move_iteratorIPSt10shared_ptrIN7testing8internal15ExpectationBaseEEES6_ET0_T_S9_S8_
FNDA:0,_ZSt22__uninitialized_copy_aISt13move_iteratorIPPKvES3_S2_ET0_T_S6_S5_RSaIT1_E
FNDA:0,_ZSt22__uninitialized_copy_aISt13move_iteratorIPSt10shared_ptrIN7testing8internal15ExpectationBaseEEES6_S5_ET0_T_S9_S8_RSaIT1_E
FNDA:0,_ZSt34__uninitialized_move_if_noexcept_aIPPKvS2_SaIS1_EET0_T_S5_S4_RT1_
FNDA:0,_ZSt34__uninitialized_move_if_noexcept_aIPSt10shared_ptrIN7testing8internal15ExpectationBaseEES5_SaIS4_EET0_T_S8_S7_RT1_
FNF:14
FNH:4
DA:113,0
DA:116,0
DA:119,0
DA:120,0
DA:121,0
DA:123,0
DA:125,0
DA:126,0
DA:135,0
DA:137,0
DA:145,0
DA:147,0
DA:163,0
DA:174,0
DA:181,0
DA:185,0
DA:366,0
DA:373,0
DA:393,0
DA:399,0
DA:400,0
DA:1069,0
DA:1077,0
DA:1078,0
DA:1079,0
DA:1091,2
DA:1103,2
DA:1104,2
DA:1105,0
DA:1107,2
DA:1114,2
DA:1118,2
DA:1119,2
DA:1131,0
DA:1133,2
DA:1141,4
DA:1147,4
DA:1149,4
LF:38
LH:11
end_of_record
TN:
SF:/usr/include/c++/13.2.1/bits/stl_vector.h
FN:113,118,_ZNSt12_Vector_baseIPKvSaIS1_EE17_Vector_impl_data12_M_copy_dataERKS4_
FN:1145,1149,_ZNKSt6vectorIPKvSaIS1_EEixEm
FN:1145,1149,_ZNKSt6vectorISt10shared_ptrIN7testing8internal15ExpectationBaseEESaIS4_EEixEm
FN:122,130,_ZNSt12_Vector_baseIPKvSaIS1_EE17_Vector_impl_data12_M_swap_dataERS4_
FN:1281,1293,_ZNSt6vectorISt10shared_ptrIN7testing8internal15ExpectationBaseEESaIS4_EE9push_backERKS4_
FN:1298,1299,_ZNSt6vectorIPKvSaIS1_EE9push_backEOS1_
FN:137,143,_ZNSt12_Vector_baseIPKvSaIS1_EE12_Vector_implC2Ev
FN:1586,1595,_ZNSt6vectorIPKvSaIS1_EE4swapERS3_
FN:1896,1903,_ZNKSt6vectorIPKvSaIS1_EE12_M_check_lenEmPKc
FN:1896,1903,_ZNKSt6vectorISt10shared_ptrIN7testing8internal15ExpectationBaseEESaIS4_EE12_M_check_lenEmPKc
FN:1916,1925,_ZNSt6vectorIPKvSaIS1_EE11_S_max_sizeERKS2_
FN:1916,1925,_ZNSt6vectorISt10shared_ptrIN7testing8internal15ExpectationBaseEESaIS4_EE11_S_max_sizeERKS5_
FN:301,302,_ZNSt12_Vector_baseIPKvSaIS1_EE19_M_get_Tp_allocatorEv
FN:301,302,_ZNSt12_Vector_baseISt10shared_ptrIN7testing8internal15ExpectationBaseEESaIS4_EE19_M_get_Tp_allocatorEv
FN:306,307,_ZNKSt12_Vector_baseIPKvSaIS1_EE19_M_get_Tp_allocatorEv
FN:306,307,_ZNKSt12_Vector_baseISt10shared_ptrIN7testing8internal15ExpectationBaseEESaIS4_EE19_M_get_Tp_allocatorEv
FN:315,315,_ZNSt12_Vector_baseIPKvSaIS1_EEC2Ev
FN:367,371,_ZNSt12_Vector_baseIPKvSaIS1_EED2Ev
FN:378,382,_ZNSt12_Vector_baseIPKvSaIS1_EE11_M_allocateEm
FN:378,382,_ZNSt12_Vector_baseISt10shared_ptrIN7testing8internal15ExpectationBaseEESaIS4_EE11_M_allocateEm
FN:386,391,_ZNSt12_Vector_baseIPKvSaIS1_EE13_M_deallocateEPS1_m
FN:386,391,_ZNSt12_Vector_baseISt10shared_ptrIN7testing8internal15ExpectationBaseEESaIS4_EE13_M_deallocateEPS4_m
FN:470,476,_ZNSt6vectorIPKvSaIS1_EE19_S_nothrow_relocateESt17integral_constantIbLb1EE
FN:470,476,_ZNSt6vectorISt10shared_ptrIN7testing8internal15ExpectationBaseEESaIS4_EE19_S_nothrow_relocateESt17integral_constantIbLb1EE
FN:483,489,_ZNSt6vectorIPKvSaIS1_EE15_S_use_relocateEv
FN:483,489,_ZNSt6vectorISt10shared_ptrIN7testing8internal15ExpectationBaseEESaIS4_EE15_S_use_relocateEv
FN:492,496,_ZNSt6vectorIPKvSaIS1_EE14_S_do_relocateEPS1_S4_S4_RS2_St17integral_constantIbLb1EE
FN:492,496,_ZNSt6vectorISt10shared_ptrIN7testing8internal15ExpectationBaseEESaIS4_EE14_S_do_relocateEPS4_S7_S7_RS5_St17integral_constantIbLb1EE
FN:504,514,_ZNSt6vectorIPKvSaIS1_EE11_S_relocateEPS1_S4_S4_RS2_
FN:504,514,_ZNSt6vectorISt10shared_ptrIN7testing8internal15ExpectationBaseEESaIS4_EE11_S_relocateEPS4_S7_S7_RS5_
FN:531,531,_ZNSt6vectorIPKvSaIS1_EEC2Ev
FN:733,738,_ZNSt6vectorIPKvSaIS1_EED2Ev
FN:873,874,_ZNSt6vectorIPKvSaIS1_EE5beginEv
FN:873,874,_ZNSt6vectorISt10shared_ptrIN7testing8internal15ExpectationBaseEESaIS4_EE5beginEv
FN:883,884,_ZNKSt6vectorIPKvSaIS1_EE5beginEv
FN:883,884,_ZNKSt6vectorISt10shared_ptrIN7testing8internal15ExpectationBaseEESaIS4_EE5beginEv
FN:893,894,_ZNSt6vectorIPKvSaIS1_EE3endEv
FN:893,894,_ZNSt6vectorISt10shared_ptrIN7testing8internal15ExpectationBaseEESaIS4_EE3endEv
FN:903,904,_ZNKSt6vectorIPKvSaIS1_EE3endEv
FN:903,904,_ZNKSt6vectorISt10shared_ptrIN7testing8internal15ExpectationBaseEESaIS4_EE3endEv
FN:923,924,_ZNKSt6vectorIPKvSaIS1_EE6rbeginEv
FN:923,924,_ZNKSt6vectorISt10shared_ptrIN7testing8internal15ExpectationBaseEESaIS4_EE6rbeginEv
FN:943,944,_ZNKSt6vectorIPKvSaIS1_EE4rendEv
FN:943,944,_ZNKSt6vectorISt10shared_ptrIN7testing8internal15ExpectationBaseEESaIS4_EE4rendEv
FN:99,101,_ZNSt12_Vector_baseIPKvSaIS1_EE17_Vector_impl_dataC2Ev
FN:992,993,_ZNKSt6vectorIPKvSaIS1_EE4sizeEv
FN:992,993,_ZNKSt6vectorISt10shared_ptrIN7testing8internal15ExpectationBaseEESaIS4_EE4sizeEv
FN:998,999,_ZNKSt6vectorIPKvSaIS1_EE8max_sizeEv
FN:998,999,_ZNKSt6vectorISt10shared_ptrIN7testing8internal15ExpectationBaseEESaIS4_EE8max_sizeEv
FNDA:9,_ZNSt12_Vector_baseIPKvSaIS1_EE17_Vector_impl_data12_M_copy_dataERKS4_
FNDA:1,_ZNKSt6vectorIPKvSaIS1_EEixEm
FNDA:0,_ZNKSt6vectorISt10shared_ptrIN7testing8internal15ExpectationBaseEESaIS4_EEixEm
FNDA:3,_ZNSt12_Vector_baseIPKvSaIS1_EE17_Vector_impl_data12_M_swap_dataERS4_
FNDA:1,_ZNSt6vectorISt10shared_ptrIN7testing8internal15ExpectationBaseEESaIS4_EE9push_backERKS4_
FNDA:1,_ZNSt6vectorIPKvSaIS1_EE9push_backEOS1_
FNDA:7,_ZNSt12_Vector_baseIPKvSaIS1_EE12_Vector_implC2Ev
FNDA:3,_ZNSt6vectorIPKvSaIS1_EE4swapERS3_
FNDA:1,_ZNKSt6vectorIPKvSaIS1_EE12_M_check_lenEmPKc
FNDA:1,_ZNKSt6vectorISt10shared_ptrIN7testing8internal15ExpectationBaseEESaIS4_EE12_M_check_lenEmPKc
FNDA:2,_ZNSt6vectorIPKvSaIS1_EE11_S_max_sizeERKS2_
FNDA:2,_ZNSt6vectorISt10shared_ptrIN7testing8internal15ExpectationBaseEESaIS4_EE11_S_max_sizeERKS5_
FNDA:15,_ZNSt12_Vector_baseIPKvSaIS1_EE19_M_get_Tp_allocatorEv
FNDA:15,_ZNSt12_Vector_baseISt10shared_ptrIN7testing8internal15ExpectationBaseEESaIS4_EE19_M_get_Tp_allocatorEv
FNDA:2,_ZNKSt12_Vector_baseIPKvSaIS1_EE19_M_get_Tp_allocatorEv
FNDA:2,_ZNKSt12_Vector_baseISt10shared_ptrIN7testing8internal15ExpectationBaseEESaIS4_EE19_M_get_Tp_allocatorEv
FNDA:7,_ZNSt12_Vector_baseIPKvSaIS1_EEC2Ev
FNDA:7,_ZNSt12_Vector_baseIPKvSaIS1_EED2Ev
FNDA:1,_ZNSt12_Vector_baseIPKvSaIS1_EE11_M_allocateEm
FNDA:1,_ZNSt12_Vector_baseISt10shared_ptrIN7testing8internal15ExpectationBaseEESaIS4_EE11_M_allocateEm
FNDA:8,_ZNSt12_Vector_baseIPKvSaIS1_EE13_M_deallocateEPS1_m
FNDA:7,_ZNSt12_Vector_baseISt10shared_ptrIN7testing8internal15ExpectationBaseEESaIS4_EE13_M_deallocateEPS4_m
FNDA:2,_ZNSt6vectorIPKvSaIS1_EE19_S_nothrow_relocateESt17integral_constantIbLb1EE
FNDA:2,_ZNSt6vectorISt10shared_ptrIN7testing8internal15ExpectationBaseEESaIS4_EE19_S_nothrow_relocateESt17integral_constantIbLb1EE
FNDA:2,_ZNSt6vectorIPKvSaIS1_EE15_S_use_relocateEv
FNDA:2,_ZNSt6vectorISt10shared_ptrIN7testing8internal15ExpectationBaseEESaIS4_EE15_S_use_relocateEv
FNDA:2,_ZNSt6vectorIPKvSaIS1_EE14_S_do_relocateEPS1_S4_S4_RS2_St17integral_constantIbLb1EE
FNDA:2,_ZNSt6vectorISt10shared_ptrIN7testing8internal15ExpectationBaseEESaIS4_EE14_S_do_relocateEPS4_S7_S7_RS5_St17integral_constantIbLb1EE
FNDA:2,_ZNSt6vectorIPKvSaIS1_EE11_S_relocateEPS1_S4_S4_RS2_
FNDA:2,_ZNSt6vectorISt10shared_ptrIN7testing8internal15ExpectationBaseEESaIS4_EE11_S_relocateEPS4_S7_S7_RS5_
FNDA:7,_ZNSt6vectorIPKvSaIS1_EEC2Ev
FNDA:7,_ZNSt6vectorIPKvSaIS1_EED2Ev
FNDA:5,_ZNSt6vectorIPKvSaIS1_EE5beginEv
FNDA:4,_ZNSt6vectorISt10shared_ptrIN7testing8internal15ExpectationBaseEESaIS4_EE5beginEv
FNDA:0,_ZNKSt6vectorIPKvSaIS1_EE5beginEv
FNDA:1,_ZNKSt6vectorISt10shared_ptrIN7testing8internal15ExpectationBaseEESaIS4_EE5beginEv
FNDA:6,_ZNSt6vectorIPKvSaIS1_EE3endEv
FNDA:5,_ZNSt6vectorISt10shared_ptrIN7testing8internal15ExpectationBaseEESaIS4_EE3endEv
FNDA:0,_ZNKSt6vectorIPKvSaIS1_EE3endEv
FNDA:1,_ZNKSt6vectorISt10shared_ptrIN7testing8internal15ExpectationBaseEESaIS4_EE3endEv
FNDA:0,_ZNKSt6vectorIPKvSaIS1_EE6rbeginEv
FNDA:1,_ZNKSt6vectorISt10shared_ptrIN7testing8internal15ExpectationBaseEESaIS4_EE6rbeginEv
FNDA:0,_ZNKSt6vectorIPKvSaIS1_EE4rendEv
FNDA:1,_ZNKSt6vectorISt10shared_ptrIN7testing8internal15ExpectationBaseEESaIS4_EE4rendEv
FNDA:10,_ZNSt12_Vector_baseIPKvSaIS1_EE17_Vector_impl_dataC2Ev
FNDA:6,_ZNKSt6vectorIPKvSaIS1_EE4sizeEv
FNDA:5,_ZNKSt6vectorISt10shared_ptrIN7testing8internal15ExpectationBaseEESaIS4_EE4sizeEv
FNDA:2,_ZNKSt6vectorIPKvSaIS1_EE8max_sizeEv
FNDA:2,_ZNKSt6vectorISt10shared_ptrIN7testing8internal15ExpectationBaseEESaIS4_EE8max_sizeEv
FNF:49
FNH:44
DA:99,10
DA:100,10
DA:101,10
DA:113,9
DA:115,9
DA:116,9
DA:117,9
DA:118,9
DA:122,3
DA:126,3
DA:127,3
DA:128,3
DA:129,3
DA:130,3
DA:137,7
DA:142,7
DA:143,7
DA:301,30
DA:302,30
DA:306,4
DA:307,4
DA:315,7
DA:367,7
DA:369,7
DA:370,7
DA:371,7
DA:378,2
DA:381,4
DA:386,15
DA:389,15
DA:390,2
DA:391,15
DA:470,4
DA:475,4
DA:483,4
DA:488,4
DA:492,4
DA:495,4
DA:504,4
DA:512,4
DA:531,7
DA:733,7
DA:735,7
DA:736,7
DA:738,7
DA:873,9
DA:874,9
DA:883,1
DA:884,1
DA:893,11
DA:894,11
DA:903,1
DA:904,1
DA:923,1
DA:924,1
DA:943,1
DA:944,1
DA:992,11
DA:993,11
DA:998,4
DA:999,4
DA:1145,1
DA:1148,1
DA:1281,1
DA:1283,1
DA:1286,0
DA:1288,0
DA:1292,1
DA:1293,1
DA:1298,1
DA:1299,1
DA:1586,3
DA:1589,3
DA:1592,3
DA:1593,3
DA:1594,3
DA:1595,3
DA:1896,2
DA:1898,2
DA:1899,0
DA:1901,2
DA:1902,2
DA:1916,4
DA:1921,4
DA:1923,4
DA:1924,4
LF:86
LH:83
end_of_record
TN:
SF:/usr/include/c++/13.2.1/bits/unique_ptr.h
FN:197,197,_ZNSt15__uniq_ptr_implINSt7__cxx1112basic_stringIcSt11char_traitsIcESaIcEEESt14default_deleteIS5_EE6_M_ptrEv
FN:197,197,_ZNSt15__uniq_ptr_implINSt7__cxx1118basic_stringstreamIcSt11char_traitsIcESaIcEEESt14default_deleteIS5_EE6_M_ptrEv
FN:199,199,_ZNKSt15__uniq_ptr_implIN7testing8internal11ThreadLocalIPNS0_8SequenceEE18ValueHolderFactoryESt14default_deleteIS6_EE6_M_ptrEv
FN:199,199,_ZNKSt15__uniq_ptr_implINSt7__cxx1112basic_stringIcSt11char_traitsIcESaIcEEESt14default_deleteIS5_EE6_M_ptrEv
FN:199,199,_ZNKSt15__uniq_ptr_implINSt7__cxx1118basic_stringstreamIcSt11char_traitsIcESaIcEEESt14default_deleteIS5_EE6_M_ptrEv
FN:201,201,_ZNSt15__uniq_ptr_implINSt7__cxx1112basic_stringIcSt11char_traitsIcESaIcEEESt14default_deleteIS5_EE10_M_deleterEv
FN:201,201,_ZNSt15__uniq_ptr_implINSt7__cxx1118basic_stringstreamIcSt11char_traitsIcESaIcEEESt14default_deleteIS5_EE10_M_deleterEv
FN:398,406,_ZNSt10unique_ptrINSt7__cxx1112basic_stringIcSt11char_traitsIcESaIcEEESt14default_deleteIS5_EED2Ev
FN:398,406,_ZNSt10unique_ptrINSt7__cxx1118basic_stringstreamIcSt11char_traitsIcESaIcEEESt14default_deleteIS5_EED2Ev
FN:451,455,_ZNKSt10unique_ptrINSt7__cxx1118basic_stringstreamIcSt11char_traitsIcESaIcEEESt14default_deleteIS5_EEdeEv
FN:460,464,_ZNKSt10unique_ptrIN7testing8internal11ThreadLocalIPNS0_8SequenceEE18ValueHolderFactoryESt14default_deleteIS6_EEptEv
FN:460,464,_ZNKSt10unique_ptrINSt7__cxx1112basic_stringIcSt11char_traitsIcESaIcEEESt14default_deleteIS5_EEptEv
FN:469,470,_ZNKSt10unique_ptrIN7testing8internal11ThreadLocalIPNS0_8SequenceEE18ValueHolderFactoryESt14default_deleteIS6_EE3getEv
FN:469,470,_ZNKSt10unique_ptrINSt7__cxx1112basic_stringIcSt11char_traitsIcESaIcEEESt14default_deleteIS5_EE3getEv
FN:469,470,_ZNKSt10unique_ptrINSt7__cxx1118basic_stringstreamIcSt11char_traitsIcESaIcEEESt14default_deleteIS5_EE3getEv
FN:475,476,_ZNSt10unique_ptrINSt7__cxx1112basic_stringIcSt11char_traitsIcESaIcEEESt14default_deleteIS5_EE11get_deleterEv
FN:475,476,_ZNSt10unique_ptrINSt7__cxx1118basic_stringstreamIcSt11char_traitsIcESaIcEEESt14default_deleteIS5_EE11get_deleterEv
FN:93,100,_ZNKSt14default_deleteINSt7__cxx1112basic_stringIcSt11char_traitsIcESaIcEEEEclEPS5_
FN:93,100,_ZNKSt14default_deleteINSt7__cxx1118basic_stringstreamIcSt11char_traitsIcESaIcEEEEclEPS5_
FNDA:1,_ZNSt15__uniq_ptr_implINSt7__cxx1112basic_stringIcSt11char_traitsIcESaIcEEESt14default_deleteIS5_EE6_M_ptrEv
FNDA:108,_ZNSt15__uniq_ptr_implINSt7__cxx1118basic_stringstreamIcSt11char_traitsIcESaIcEEESt14default_deleteIS5_EE6_M_ptrEv
FNDA:1,_ZNKSt15__uniq_ptr_implIN7testing8internal11ThreadLocalIPNS0_8SequenceEE18ValueHolderFactoryESt14default_deleteIS6_EE6_M_ptrEv
FNDA:0,_ZNKSt15__uniq_ptr_implINSt7__cxx1112basic_stringIcSt11char_traitsIcESaIcEEESt14default_deleteIS5_EE6_M_ptrEv
FNDA:576,_ZNKSt15__uniq_ptr_implINSt7__cxx1118basic_stringstreamIcSt11char_traitsIcESaIcEEESt14default_deleteIS5_EE6_M_ptrEv
FNDA:0,_ZNSt15__uniq_ptr_implINSt7__cxx1112basic_stringIcSt11char_traitsIcESaIcEEESt14default_deleteIS5_EE10_M_deleterEv
FNDA:54,_ZNSt15__uniq_ptr_implINSt7__cxx1118basic_stringstreamIcSt11char_traitsIcESaIcEEESt14default_deleteIS5_EE10_M_deleterEv
FNDA:1,_ZNSt10unique_ptrINSt7__cxx1112basic_stringIcSt11char_traitsIcESaIcEEESt14default_deleteIS5_EED2Ev
FNDA:54,_ZNSt10unique_ptrINSt7__cxx1118basic_stringstreamIcSt11char_traitsIcESaIcEEESt14default_deleteIS5_EED2Ev
FNDA:522,_ZNKSt10unique_ptrINSt7__cxx1118basic_stringstreamIcSt11char_traitsIcESaIcEEESt14default_deleteIS5_EEdeEv
FNDA:1,_ZNKSt10unique_ptrIN7testing8internal11ThreadLocalIPNS0_8SequenceEE18ValueHolderFactoryESt14default_deleteIS6_EEptEv
FNDA:0,_ZNKSt10unique_ptrINSt7__cxx1112basic_stringIcSt11char_traitsIcESaIcEEESt14default_deleteIS5_EEptEv
FNDA:1,_ZNKSt10unique_ptrIN7testing8internal11ThreadLocalIPNS0_8SequenceEE18ValueHolderFactoryESt14default_deleteIS6_EE3getEv
FNDA:0,_ZNKSt10unique_ptrINSt7__cxx1112basic_stringIcSt11char_traitsIcESaIcEEESt14default_deleteIS5_EE3getEv
FNDA:576,_ZNKSt10unique_ptrINSt7__cxx1118basic_stringstreamIcSt11char_traitsIcESaIcEEESt14default_deleteIS5_EE3getEv
FNDA:0,_ZNSt10unique_ptrINSt7__cxx1112basic_stringIcSt11char_traitsIcESaIcEEESt14default_deleteIS5_EE11get_deleterEv
FNDA:54,_ZNSt10unique_ptrINSt7__cxx1118basic_stringstreamIcSt11char_traitsIcESaIcEEESt14default_deleteIS5_EE11get_deleterEv
FNDA:0,_ZNKSt14default_deleteINSt7__cxx1112basic_stringIcSt11char_traitsIcESaIcEEEEclEPS5_
FNDA:54,_ZNKSt14default_deleteINSt7__cxx1118basic_stringstreamIcSt11char_traitsIcESaIcEEEEclEPS5_
FNF:19
FNH:13
DA:93,54
DA:99,54
DA:100,54
DA:197,109
DA:199,577
DA:201,54
DA:398,55
DA:402,55
DA:403,55
DA:404,54
DA:405,55
DA:406,55
DA:451,522
DA:453,522
DA:454,522
DA:460,1
DA:463,1
DA:469,577
DA:470,577
DA:475,54
DA:476,54
LF:21
LH:21
end_of_record
TN:
SF:/usr/include/c++/13.2.1/bits/vector.tcc
FN:111,127,_ZNSt6vectorIPKvSaIS1_EE12emplace_backIJS1_EEEvDpOT_
FN:445,524,_ZNSt6vectorIPKvSaIS1_EE17_M_realloc_insertIJS1_EEEvN9__gnu_cxx17__normal_iteratorIPS1_S3_EEDpOT_
FN:445,524,_ZNSt6vectorISt10shared_ptrIN7testing8internal15ExpectationBaseEESaIS4_EE17_M_realloc_insertIJRKS4_EEEvN9__gnu_cxx17__normal_iteratorIPS4_S6_EEDpOT_
FNDA:1,_ZNSt6vectorIPKvSaIS1_EE12emplace_backIJS1_EEEvDpOT_
FNDA:1,_ZNSt6vectorIPKvSaIS1_EE17_M_realloc_insertIJS1_EEEvN9__gnu_cxx17__normal_iteratorIPS1_S3_EEDpOT_
FNDA:1,_ZNSt6vectorISt10shared_ptrIN7testing8internal15ExpectationBaseEESaIS4_EE17_M_realloc_insertIJRKS4_EEEvN9__gnu_cxx17__normal_iteratorIPS4_S6_EEDpOT_
FNF:3
FNH:3
DA:111,1
DA:114,1
DA:117,0
DA:119,0
DA:123,1
DA:127,1
DA:445,2
DA:455,2
DA:456,2
DA:457,2
DA:458,2
DA:459,2
DA:460,2
DA:468,2
DA:469,2
DA:475,2
DA:478,2
DA:480,2
DA:481,2
DA:483,2
DA:485,2
DA:486,2
DA:493,0
DA:494,0
DA:496,0
DA:500,0
DA:501,0
DA:504,0
DA:506,0
DA:507,0
DA:508,0
DA:510,0
DA:511,0
DA:512,0
DA:515,2
DA:517,0
DA:519,2
DA:520,2
DA:521,2
DA:522,2
DA:523,2
DA:524,2
LF:42
LH:27
end_of_record
TN:
SF:/usr/include/c++/13.2.1/ext/aligned_buffer.h
FN:104,107,_ZN9__gnu_cxx16__aligned_bufferIN7testing10OnceActionIFiiPKiiEE23IgnoreIncomingArgumentsINS1_8internal12ReturnActionIiE4ImplIiEEEEE7_M_addrEv
FN:104,107,_ZN9__gnu_cxx16__aligned_bufferIN7testing10OnceActionIFiiPKiiEEEE7_M_addrEv
FN:116,117,_ZN9__gnu_cxx16__aligned_bufferIN7testing10OnceActionIFiiPKiiEE23IgnoreIncomingArgumentsINS1_8internal12ReturnActionIiE4ImplIiEEEEE6_M_ptrEv
FN:116,117,_ZN9__gnu_cxx16__aligned_bufferIN7testing10OnceActionIFiiPKiiEEEE6_M_ptrEv
FN:64,65,_ZN9__gnu_cxx16__aligned_membufIN7testing11ExpectationEE7_M_addrEv
FN:68,69,_ZNK9__gnu_cxx16__aligned_membufIN7testing11ExpectationEE7_M_addrEv
FN:72,73,_ZN9__gnu_cxx16__aligned_membufIN7testing11ExpectationEE6_M_ptrEv
FN:76,77,_ZNK9__gnu_cxx16__aligned_membufIN7testing11ExpectationEE6_M_ptrEv
FNDA:3,_ZN9__gnu_cxx16__aligned_bufferIN7testing10OnceActionIFiiPKiiEE23IgnoreIncomingArgumentsINS1_8internal12ReturnActionIiE4ImplIiEEEEE7_M_addrEv
FNDA:3,_ZN9__gnu_cxx16__aligned_bufferIN7testing10OnceActionIFiiPKiiEEEE7_M_addrEv
FNDA:3,_ZN9__gnu_cxx16__aligned_bufferIN7testing10OnceActionIFiiPKiiEE23IgnoreIncomingArgumentsINS1_8internal12ReturnActionIiE4ImplIiEEEEE6_M_ptrEv
FNDA:3,_ZN9__gnu_cxx16__aligned_bufferIN7testing10OnceActionIFiiPKiiEEEE6_M_ptrEv
FNDA:0,_ZN9__gnu_cxx16__aligned_membufIN7testing11ExpectationEE7_M_addrEv
FNDA:0,_ZNK9__gnu_cxx16__aligned_membufIN7testing11ExpectationEE7_M_addrEv
FNDA:0,_ZN9__gnu_cxx16__aligned_membufIN7testing11ExpectationEE6_M_ptrEv
FNDA:0,_ZNK9__gnu_cxx16__aligned_membufIN7testing11ExpectationEE6_M_ptrEv
FNF:8
FNH:4
DA:64,0
DA:65,0
DA:68,0
DA:69,0
DA:72,0
DA:73,0
DA:76,0
DA:77,0
DA:104,6
DA:106,6
DA:116,6
DA:117,6
LF:12
LH:4
end_of_record
TN:
SF:/usr/include/c++/13.2.1/ext/alloc_traits.h
FNF:0
FNH:0
DA:98,3
DA:102,3
LF:2
LH:2
end_of_record
TN:
SF:/usr/include/c++/13.2.1/ext/atomicity.h
FNF:0
FNH:0
DA:52,10
DA:66,0
DA:71,0
DA:84,5
DA:85,5
DA:86,5
DA:92,5
DA:98,5
DA:99,5
DA:101,0
DA:108,5
DA:112,5
LF:12
LH:9
end_of_record
TN:
SF:/usr/include/c++/13.2.1/new
FN:174,175,_ZnwmPv
FNDA:35,_ZnwmPv
FNF:1
FNH:1
DA:174,35
DA:175,35
LF:2
LH:2
end_of_record
TN:
SF:/usr/include/c++/13.2.1/tuple
FN:125,125,_ZNSt10_Head_baseILm1ESt14default_deleteINSt7__cxx1112basic_stringIcSt11char_traitsIcESaIcEEEELb1EE7_M_headERS8_
FN:125,125,_ZNSt10_Head_baseILm1ESt14default_deleteINSt7__cxx1118basic_stringstreamIcSt11char_traitsIcESaIcEEEELb1EE7_M_headERS8_
FN:1345,1347,_ZNSt5tupleIJPKN7testing8internal11MatcherBaseIPKiEEPKNS1_15AnythingMatcherEEEC2IS7_SA_Lb1EEEOT_OT0_
FN:1345,1347,_ZNSt5tupleIJPKN7testing8internal11MatcherBaseIRKS_IJiPKiiEEEEPKNS1_15AnythingMatcherEEEC2ISA_SD_Lb1EEEOT_OT0_
FN:1345,1347,_ZNSt5tupleIJPKN7testing8internal11MatcherBaseIiEEPKNS1_9EqMatcherIiEEEEC2IS5_S9_Lb1EEEOT_OT0_
FN:1345,1347,_ZNSt5tupleIJiP17spi_transaction_tEEC2IiS1_Lb1EEEOT_OT0_
FN:1358,1358,_ZNSt5tupleIJiP17spi_transaction_tEEC2EOS2_
FN:1787,1788,_ZSt12__get_helperILm0EPKN7testing8internal11MatcherBaseIPKiEEJPKNS1_15AnythingMatcherEEERT0_RSt11_Tuple_implIXT_EJSB_DpT1_EE
FN:1787,1788,_ZSt12__get_helperILm0EPKN7testing8internal11MatcherBaseIRKSt5tupleIJiPKiiEEEEJPKNS1_15AnythingMatcherEEERT0_RSt11_Tuple_implIXT_EJSF_DpT1_EE
FN:1787,1788,_ZSt12__get_helperILm0EPKN7testing8internal11MatcherBaseIiEEJPKNS1_9EqMatcherIiEEEERT0_RSt11_Tuple_implIXT_EJSA_DpT1_EE
FN:1787,1788,_ZSt12__get_helperILm0EPNSt7__cxx1112basic_stringIcSt11char_traitsIcESaIcEEEJSt14default_deleteIS5_EEERT0_RSt11_Tuple_implIXT_EJS9_DpT1_EE
FN:1787,1788,_ZSt12__get_helperILm0EPNSt7__cxx1118basic_stringstreamIcSt11char_traitsIcESaIcEEEJSt14default_deleteIS5_EEERT0_RSt11_Tuple_implIXT_EJS9_DpT1_EE
FN:1787,1788,_ZSt12__get_helperILm0EiJP17spi_transaction_tEERT0_RSt11_Tuple_implIXT_EJS2_DpT1_EE
FN:1787,1788,_ZSt12__get_helperILm0EiJPKiPiEERT0_RSt11_Tuple_implIXT_EJS3_DpT1_EE
FN:1787,1788,_ZSt12__get_helperILm0EiJPKiiEERT0_RSt11_Tuple_implIXT_EJS2_DpT1_EE
FN:1787,1788,_ZSt12__get_helperILm1EP17spi_transaction_tJEERT0_RSt11_Tuple_implIXT_EJS2_DpT1_EE
FN:1787,1788,_ZSt12__get_helperILm1EPKiJPiEERT0_RSt11_Tuple_implIXT_EJS3_DpT1_EE
FN:1787,1788,_ZSt12__get_helperILm1EPKiJiEERT0_RSt11_Tuple_implIXT_EJS2_DpT1_EE
FN:1787,1788,_ZSt12__get_helperILm1ESt14default_deleteINSt7__cxx1112basic_stringIcSt11char_traitsIcESaIcEEEEJEERT0_RSt11_Tuple_implIXT_EJS8_DpT1_EE
FN:1787,1788,_ZSt12__get_helperILm1ESt14default_deleteINSt7__cxx1118basic_stringstreamIcSt11char_traitsIcESaIcEEEEJEERT0_RSt11_Tuple_implIXT_EJS8_DpT1_EE
FN:1787,1788,_ZSt12__get_helperILm2EPiJEERT0_RSt11_Tuple_implIXT_EJS1_DpT1_EE
FN:1787,1788,_ZSt12__get_helperILm2EiJEERT0_RSt11_Tuple_implIXT_EJS0_DpT1_EE
FN:1792,1793,_ZSt12__get_helperILm0EN7testing7MatcherIiEEJNS1_IP17spi_transaction_tEEEERKT0_RKSt11_Tuple_implIXT_EJS6_DpT1_EE
FN:1792,1793,_ZSt12__get_helperILm0EN7testing7MatcherIiEEJNS1_IPKiEENS1_IPiEEEERKT0_RKSt11_Tuple_implIXT_EJS8_DpT1_EE
FN:1792,1793,_ZSt12__get_helperILm0EN7testing7MatcherIiEEJNS1_IPKiEES2_EERKT0_RKSt11_Tuple_implIXT_EJS6_DpT1_EE
FN:1792,1793,_ZSt12__get_helperILm0EPN7testing8internal11ThreadLocalIPNS0_8SequenceEE18ValueHolderFactoryEJSt14default_deleteIS6_EEERKT0_RKSt11_Tuple_implIXT_EJSA_DpT1_EE
FN:1792,1793,_ZSt12__get_helperILm0EPNSt7__cxx1112basic_stringIcSt11char_traitsIcESaIcEEEJSt14default_deleteIS5_EEERKT0_RKSt11_Tuple_implIXT_EJS9_DpT1_EE
FN:1792,1793,_ZSt12__get_helperILm0EPNSt7__cxx1118basic_stringstreamIcSt11char_traitsIcESaIcEEEJSt14default_deleteIS5_EEERKT0_RKSt11_Tuple_implIXT_EJS9_DpT1_EE
FN:1792,1793,_ZSt12__get_helperILm0EiJP17spi_transaction_tEERKT0_RKSt11_Tuple_implIXT_EJS2_DpT1_EE
FN:1792,1793,_ZSt12__get_helperILm0EiJPKiPiEERKT0_RKSt11_Tuple_implIXT_EJS3_DpT1_EE
FN:1792,1793,_ZSt12__get_helperILm0EiJPKiiEERKT0_RKSt11_Tuple_implIXT_EJS2_DpT1_EE
FN:1792,1793,_ZSt12__get_helperILm1EN7testing7MatcherIP17spi_transaction_tEEJEERKT0_RKSt11_Tuple_implIXT_EJS5_DpT1_EE
FN:1792,1793,_ZSt12__get_helperILm1EN7testing7MatcherIPKiEEJNS1_IPiEEEERKT0_RKSt11_Tuple_implIXT_EJS7_DpT1_EE
FN:1792,1793,_ZSt12__get_helperILm1EN7testing7MatcherIPKiEEJNS1_IiEEEERKT0_RKSt11_Tuple_implIXT_EJS6_DpT1_EE
FN:1792,1793,_ZSt12__get_helperILm1EP17spi_transaction_tJEERKT0_RKSt11_Tuple_implIXT_EJS2_DpT1_EE
FN:1792,1793,_ZSt12__get_helperILm1EPKiJPiEERKT0_RKSt11_Tuple_implIXT_EJS3_DpT1_EE
FN:1792,1793,_ZSt12__get_helperILm1EPKiJiEERKT0_RKSt11_Tuple_implIXT_EJS2_DpT1_EE
FN:1792,1793,_ZSt12__get_helperILm2EN7testing7MatcherIPiEEJEERKT0_RKSt11_Tuple_implIXT_EJS4_DpT1_EE
FN:1792,1793,_ZSt12__get_helperILm2EN7testing7MatcherIiEEJEERKT0_RKSt11_Tuple_implIXT_EJS3_DpT1_EE
FN:1792,1793,_ZSt12__get_helperILm2EPiJEERKT0_RKSt11_Tuple_implIXT_EJS1_DpT1_EE
FN:1792,1793,_ZSt12__get_helperILm2EiJEERKT0_RKSt11_Tuple_implIXT_EJS0_DpT1_EE
FN:1803,1804,_ZSt3getILm0EJPNSt7__cxx1112basic_stringIcSt11char_traitsIcESaIcEEESt14default_deleteIS5_EEERNSt13tuple_elementIXT_ESt5tupleIJDpT0_EEE4typeERSD_
FN:1803,1804,_ZSt3getILm0EJPNSt7__cxx1118basic_stringstreamIcSt11char_traitsIcESaIcEEESt14default_deleteIS5_EEERNSt13tuple_elementIXT_ESt5tupleIJDpT0_EEE4typeERSD_
FN:1803,1804,_ZSt3getILm1EJPNSt7__cxx1112basic_stringIcSt11char_traitsIcESaIcEEESt14default_deleteIS5_EEERNSt13tuple_elementIXT_ESt5tupleIJDpT0_EEE4typeERSD_
FN:1803,1804,_ZSt3getILm1EJPNSt7__cxx1118basic_stringstreamIcSt11char_traitsIcESaIcEEESt14default_deleteIS5_EEERNSt13tuple_elementIXT_ESt5tupleIJDpT0_EEE4typeERSD_
FN:1809,1810,_ZSt3getILm0EJN7testing7MatcherIiEENS1_IP17spi_transaction_tEEEERKNSt13tuple_elementIXT_ESt5tupleIJDpT0_EEE4typeERKSA_
FN:1809,1810,_ZSt3getILm0EJN7testing7MatcherIiEENS1_IPKiEENS1_IPiEEEERKNSt13tuple_elementIXT_ESt5tupleIJDpT0_EEE4typeERKSC_
FN:1809,1810,_ZSt3getILm0EJN7testing7MatcherIiEENS1_IPKiEES2_EERKNSt13tuple_elementIXT_ESt5tupleIJDpT0_EEE4typeERKSA_
FN:1809,1810,_ZSt3getILm0EJPN7testing8internal11ThreadLocalIPNS0_8SequenceEE18ValueHolderFactoryESt14default_deleteIS6_EEERKNSt13tuple_elementIXT_ESt5tupleIJDpT0_EEE4typeERKSE_
FN:1809,1810,_ZSt3getILm0EJPNSt7__cxx1112basic_stringIcSt11char_traitsIcESaIcEEESt14default_deleteIS5_EEERKNSt13tuple_elementIXT_ESt5tupleIJDpT0_EEE4typeERKSD_
FN:1809,1810,_ZSt3getILm0EJPNSt7__cxx1118basic_stringstreamIcSt11char_traitsIcESaIcEEESt14default_deleteIS5_EEERKNSt13tuple_elementIXT_ESt5tupleIJDpT0_EEE4typeERKSD_
FN:1809,1810,_ZSt3getILm0EJiP17spi_transaction_tEERKNSt13tuple_elementIXT_ESt5tupleIJDpT0_EEE4typeERKS6_
FN:1809,1810,_ZSt3getILm0EJiPKiPiEERKNSt13tuple_elementIXT_ESt5tupleIJDpT0_EEE4typeERKS7_
FN:1809,1810,_ZSt3getILm0EJiPKiiEERKNSt13tuple_elementIXT_ESt5tupleIJDpT0_EEE4typeERKS6_
FN:1809,1810,_ZSt3getILm1EJN7testing7MatcherIiEENS1_IP17spi_transaction_tEEEERKNSt13tuple_elementIXT_ESt5tupleIJDpT0_EEE4typeERKSA_
FN:1809,1810,_ZSt3getILm1EJN7testing7MatcherIiEENS1_IPKiEENS1_IPiEEEERKNSt13tuple_elementIXT_ESt5tupleIJDpT0_EEE4typeERKSC_
FN:1809,1810,_ZSt3getILm1EJN7testing7MatcherIiEENS1_IPKiEES2_EERKNSt13tuple_elementIXT_ESt5tupleIJDpT0_EEE4typeERKSA_
FN:1809,1810,_ZSt3getILm1EJiP17spi_transaction_tEERKNSt13tuple_elementIXT_ESt5tupleIJDpT0_EEE4typeERKS6_
FN:1809,1810,_ZSt3getILm1EJiPKiPiEERKNSt13tuple_elementIXT_ESt5tupleIJDpT0_EEE4typeERKS7_
FN:1809,1810,_ZSt3getILm1EJiPKiiEERKNSt13tuple_elementIXT_ESt5tupleIJDpT0_EEE4typeERKS6_
FN:1809,1810,_ZSt3getILm2EJN7testing7MatcherIiEENS1_IPKiEENS1_IPiEEEERKNSt13tuple_elementIXT_ESt5tupleIJDpT0_EEE4typeERKSC_
FN:1809,1810,_ZSt3getILm2EJN7testing7MatcherIiEENS1_IPKiEES2_EERKNSt13tuple_elementIXT_ESt5tupleIJDpT0_EEE4typeERKSA_
FN:1809,1810,_ZSt3getILm2EJiPKiPiEERKNSt13tuple_elementIXT_ESt5tupleIJDpT0_EEE4typeERKS7_
FN:1809,1810,_ZSt3getILm2EJiPKiiEERKNSt13tuple_elementIXT_ESt5tupleIJDpT0_EEE4typeERKS6_
FN:1815,1819,_ZSt3getILm0EJPKN7testing8internal11MatcherBaseIPKiEEPKNS1_15AnythingMatcherEEEONSt13tuple_elementIXT_ESt5tupleIJDpT0_EEE4typeEOSF_
FN:1815,1819,_ZSt3getILm0EJPKN7testing8internal11MatcherBaseIRKSt5tupleIJiPKiiEEEEPKNS1_15AnythingMatcherEEEONSt13tuple_elementIXT_ES3_IJDpT0_EEE4typeEOSI_
FN:1815,1819,_ZSt3getILm0EJPKN7testing8internal11MatcherBaseIiEEPKNS1_9EqMatcherIiEEEEONSt13tuple_elementIXT_ESt5tupleIJDpT0_EEE4typeEOSE_
FN:1815,1819,_ZSt3getILm0EJiP17spi_transaction_tEEONSt13tuple_elementIXT_ESt5tupleIJDpT0_EEE4typeEOS6_
FN:1815,1819,_ZSt3getILm0EJiPKiPiEEONSt13tuple_elementIXT_ESt5tupleIJDpT0_EEE4typeEOS7_
FN:1815,1819,_ZSt3getILm0EJiPKiiEEONSt13tuple_elementIXT_ESt5tupleIJDpT0_EEE4typeEOS6_
FN:1815,1819,_ZSt3getILm1EJiP17spi_transaction_tEEONSt13tuple_elementIXT_ESt5tupleIJDpT0_EEE4typeEOS6_
FN:1815,1819,_ZSt3getILm1EJiPKiPiEEONSt13tuple_elementIXT_ESt5tupleIJDpT0_EEE4typeEOS7_
FN:1815,1819,_ZSt3getILm1EJiPKiiEEONSt13tuple_elementIXT_ESt5tupleIJDpT0_EEE4typeEOS6_
FN:1815,1819,_ZSt3getILm2EJiPKiPiEEONSt13tuple_elementIXT_ESt5tupleIJDpT0_EEE4typeEOS7_
FN:1815,1819,_ZSt3getILm2EJiPKiiEEONSt13tuple_elementIXT_ESt5tupleIJDpT0_EEE4typeEOS6_
FN:196,196,_ZNSt10_Head_baseILm0EN7testing7MatcherIiEELb0EEC2ERKS3_
FN:196,196,_ZNSt10_Head_baseILm1EN7testing7MatcherIPKiEELb0EEC2ERKS5_
FN:196,196,_ZNSt10_Head_baseILm2EN7testing7MatcherIiEELb0EEC2ERKS3_
FN:200,201,_ZNSt10_Head_baseILm0EN7testing7MatcherIiEELb0EEC2IS2_EEOT_
FN:200,201,_ZNSt10_Head_baseILm0EPKN7testing8internal11MatcherBaseIPKiEELb0EEC2IS7_EEOT_
FN:200,201,_ZNSt10_Head_baseILm0EPKN7testing8internal11MatcherBaseIRKSt5tupleIJiPKiiEEEELb0EEC2ISB_EEOT_
FN:200,201,_ZNSt10_Head_baseILm0EPKN7testing8internal11MatcherBaseIiEELb0EEC2IS5_EEOT_
FN:200,201,_ZNSt10_Head_baseILm0EiLb0EEC2IiEEOT_
FN:200,201,_ZNSt10_Head_baseILm1EN7testing7MatcherIPKiEELb0EEC2IS4_EEOT_
FN:200,201,_ZNSt10_Head_baseILm1EP17spi_transaction_tLb0EEC2IS1_EEOT_
FN:200,201,_ZNSt10_Head_baseILm1EPKN7testing8internal15AnythingMatcherELb0EEC2IS4_EEOT_
FN:200,201,_ZNSt10_Head_baseILm1EPKN7testing8internal9EqMatcherIiEELb0EEC2IS5_EEOT_
FN:200,201,_ZNSt10_Head_baseILm1EPKiLb0EEC2IS1_EEOT_
FN:200,201,_ZNSt10_Head_baseILm2EN7testing7MatcherIiEELb0EEC2IS2_EEOT_
FN:200,201,_ZNSt10_Head_baseILm2EPiLb0EEC2IS0_EEOT_
FN:200,201,_ZNSt10_Head_baseILm2EiLb0EEC2IiEEOT_
FN:2001,2006,_ZSt10make_tupleIJN7testing7MatcherIiEENS1_IPKiEES2_EESt5tupleIJDpNSt25__strip_reference_wrapperINSt5decayIT_E4typeEE6__typeEEEDpOS9_
FN:2001,2006,_ZSt10make_tupleIJPKN7testing8internal11MatcherBaseIPKiEEPKNS1_15AnythingMatcherEEESt5tupleIJDpNSt25__strip_reference_wrapperINSt5decayIT_E4typeEE6__typeEEEDpOSE_
FN:2001,2006,_ZSt10make_tupleIJPKN7testing8internal11MatcherBaseIRKSt5tupleIJiPKiiEEEEPKNS1_15AnythingMatcherEEES3_IJDpNSt25__strip_reference_wrapperINSt5decayIT_E4typeEE6__typeEEEDpOSH_
FN:2001,2006,_ZSt10make_tupleIJPKN7testing8internal11MatcherBaseIiEEPKNS1_9EqMatcherIiEEEESt5tupleIJDpNSt25__strip_reference_wrapperINSt5decayIT_E4typeEE6__typeEEEDpOSD_
FN:234,234,_ZNSt10_Head_baseILm0EPKN7testing8internal11MatcherBaseIPKiEELb0EE7_M_headERS8_
FN:234,234,_ZNSt10_Head_baseILm0EPKN7testing8internal11MatcherBaseIRKSt5tupleIJiPKiiEEEELb0EE7_M_headERSC_
FN:234,234,_ZNSt10_Head_baseILm0EPKN7testing8internal11MatcherBaseIiEELb0EE7_M_headERS6_
FN:234,234,_ZNSt10_Head_baseILm0EPNSt7__cxx1112basic_stringIcSt11char_traitsIcESaIcEEELb0EE7_M_headERS7_
FN:234,234,_ZNSt10_Head_baseILm0EPNSt7__cxx1118basic_stringstreamIcSt11char_traitsIcESaIcEEELb0EE7_M_headERS7_
FN:234,234,_ZNSt10_Head_baseILm0EiLb0EE7_M_headERS0_
FN:234,234,_ZNSt10_Head_baseILm1EP17spi_transaction_tLb0EE7_M_headERS2_
FN:234,234,_ZNSt10_Head_baseILm1EPKiLb0EE7_M_headERS2_
FN:234,234,_ZNSt10_Head_baseILm2EPiLb0EE7_M_headERS1_
FN:234,234,_ZNSt10_Head_baseILm2EiLb0EE7_M_headERS0_
FN:237,237,_ZNSt10_Head_baseILm0EN7testing7MatcherIiEELb0EE7_M_headERKS3_
FN:237,237,_ZNSt10_Head_baseILm0EPN7testing8internal11ThreadLocalIPNS0_8SequenceEE18ValueHolderFactoryELb0EE7_M_headERKS8_
FN:237,237,_ZNSt10_Head_baseILm0EPNSt7__cxx1112basic_stringIcSt11char_traitsIcESaIcEEELb0EE7_M_headERKS7_
FN:237,237,_ZNSt10_Head_baseILm0EPNSt7__cxx1118basic_stringstreamIcSt11char_traitsIcESaIcEEELb0EE7_M_headERKS7_
FN:237,237,_ZNSt10_Head_baseILm0EiLb0EE7_M_headERKS0_
FN:237,237,_ZNSt10_Head_baseILm1EN7testing7MatcherIP17spi_transaction_tEELb0EE7_M_headERKS5_
FN:237,237,_ZNSt10_Head_baseILm1EN7testing7MatcherIPKiEELb0EE7_M_headERKS5_
FN:237,237,_ZNSt10_Head_baseILm1EP17spi_transaction_tLb0EE7_M_headERKS2_
FN:237,237,_ZNSt10_Head_baseILm1EPKiLb0EE7_M_headERKS2_
FN:237,237,_ZNSt10_Head_baseILm2EN7testing7MatcherIPiEELb0EE7_M_headERKS4_
FN:237,237,_ZNSt10_Head_baseILm2EN7testing7MatcherIiEELb0EE7_M_headERKS3_
FN:237,237,_ZNSt10_Head_baseILm2EPiLb0EE7_M_headERKS1_
FN:237,237,_ZNSt10_Head_baseILm2EiLb0EE7_M_headERKS0_
FN:269,269,_ZNSt11_Tuple_implILm0EJPKN7testing8internal11MatcherBaseIPKiEEPKNS1_15AnythingMatcherEEE7_M_headERSB_
FN:269,269,_ZNSt11_Tuple_implILm0EJPKN7testing8internal11MatcherBaseIRKSt5tupleIJiPKiiEEEEPKNS1_15AnythingMatcherEEE7_M_headERSF_
FN:269,269,_ZNSt11_Tuple_implILm0EJPKN7testing8internal11MatcherBaseIiEEPKNS1_9EqMatcherIiEEEE7_M_headERSA_
FN:269,269,_ZNSt11_Tuple_implILm0EJPNSt7__cxx1112basic_stringIcSt11char_traitsIcESaIcEEESt14default_deleteIS5_EEE7_M_headERS9_
FN:269,269,_ZNSt11_Tuple_implILm0EJPNSt7__cxx1118basic_stringstreamIcSt11char_traitsIcESaIcEEESt14default_deleteIS5_EEE7_M_headERS9_
FN:269,269,_ZNSt11_Tuple_implILm0EJiP17spi_transaction_tEE7_M_headERS2_
FN:269,269,_ZNSt11_Tuple_implILm0EJiPKiPiEE7_M_headERS3_
FN:269,269,_ZNSt11_Tuple_implILm0EJiPKiiEE7_M_headERS2_
FN:269,269,_ZNSt11_Tuple_implILm1EJPKiPiEE7_M_headERS3_
FN:269,269,_ZNSt11_Tuple_implILm1EJPKiiEE7_M_headERS2_
FN:272,272,_ZNSt11_Tuple_implILm0EJN7testing7MatcherIiEENS1_IP17spi_transaction_tEEEE7_M_headERKS6_
FN:272,272,_ZNSt11_Tuple_implILm0EJN7testing7MatcherIiEENS1_IPKiEENS1_IPiEEEE7_M_headERKS8_
FN:272,272,_ZNSt11_Tuple_implILm0EJN7testing7MatcherIiEENS1_IPKiEES2_EE7_M_headERKS6_
FN:272,272,_ZNSt11_Tuple_implILm0EJPN7testing8internal11ThreadLocalIPNS0_8SequenceEE18ValueHolderFactoryESt14default_deleteIS6_EEE7_M_headERKSA_
FN:272,272,_ZNSt11_Tuple_implILm0EJPNSt7__cxx1112basic_stringIcSt11char_traitsIcESaIcEEESt14default_deleteIS5_EEE7_M_headERKS9_
FN:272,272,_ZNSt11_Tuple_implILm0EJPNSt7__cxx1118basic_stringstreamIcSt11char_traitsIcESaIcEEESt14default_deleteIS5_EEE7_M_headERKS9_
FN:272,272,_ZNSt11_Tuple_implILm0EJiP17spi_transaction_tEE7_M_headERKS2_
FN:272,272,_ZNSt11_Tuple_implILm0EJiPKiPiEE7_M_headERKS3_
FN:272,272,_ZNSt11_Tuple_implILm0EJiPKiiEE7_M_headERKS2_
FN:272,272,_ZNSt11_Tuple_implILm1EJN7testing7MatcherIPKiEENS1_IPiEEEE7_M_headERKS7_
FN:272,272,_ZNSt11_Tuple_implILm1EJN7testing7MatcherIPKiEENS1_IiEEEE7_M_headERKS6_
FN:272,272,_ZNSt11_Tuple_implILm1EJPKiPiEE7_M_headERKS3_
FN:272,272,_ZNSt11_Tuple_implILm1EJPKiiEE7_M_headERKS2_
FN:291,294,_ZNSt11_Tuple_implILm0EJN7testing7MatcherIiEENS1_IPKiEES2_EEC2IS2_JS5_S2_EvEEOT_DpOT0_
FN:291,294,_ZNSt11_Tuple_implILm0EJPKN7testing8internal11MatcherBaseIPKiEEPKNS1_15AnythingMatcherEEEC2IS7_JSA_EvEEOT_DpOT0_
FN:291,294,_ZNSt11_Tuple_implILm0EJPKN7testing8internal11MatcherBaseIRKSt5tupleIJiPKiiEEEEPKNS1_15AnythingMatcherEEEC2ISB_JSE_EvEEOT_DpOT0_
FN:291,294,_ZNSt11_Tuple_implILm0EJPKN7testing8internal11MatcherBaseIiEEPKNS1_9EqMatcherIiEEEEC2IS5_JS9_EvEEOT_DpOT0_
FN:291,294,_ZNSt11_Tuple_implILm0EJiP17spi_transaction_tEEC2IiJS1_EvEEOT_DpOT0_
FN:291,294,_ZNSt11_Tuple_implILm0EJiPKiPiEEC2IiJS1_S2_EvEEOT_DpOT0_
FN:291,294,_ZNSt11_Tuple_implILm0EJiPKiiEEC2IiJS1_iEvEEOT_DpOT0_
FN:291,294,_ZNSt11_Tuple_implILm1EJN7testing7MatcherIPKiEENS1_IiEEEEC2IS4_JS5_EvEEOT_DpOT0_
FN:291,294,_ZNSt11_Tuple_implILm1EJPKiPiEEC2IS1_JS2_EvEEOT_DpOT0_
FN:291,294,_ZNSt11_Tuple_implILm1EJPKiiEEC2IS1_JiEvEEOT_DpOT0_
FN:296,296,_ZNSt11_Tuple_implILm0EJN7testing7MatcherIiEENS1_IPKiEES2_EEC2ERKS6_
FN:296,296,_ZNSt11_Tuple_implILm1EJN7testing7MatcherIPKiEENS1_IiEEEEC2ERKS6_
FN:302,302,_ZNSt11_Tuple_implILm0EJiP17spi_transaction_tEEC2EOS2_
FN:302,302,_ZNSt11_Tuple_implILm0EJiPKiPiEEC2EOS3_
FN:302,302,_ZNSt11_Tuple_implILm0EJiPKiiEEC2EOS2_
FN:302,302,_ZNSt11_Tuple_implILm1EJPKiPiEEC2EOS3_
FN:302,302,_ZNSt11_Tuple_implILm1EJPKiiEEC2EOS2_
FN:497,497,_ZNSt11_Tuple_implILm1EJP17spi_transaction_tEE7_M_headERS2_
FN:497,497,_ZNSt11_Tuple_implILm1EJSt14default_deleteINSt7__cxx1112basic_stringIcSt11char_traitsIcESaIcEEEEEE7_M_headERS8_
FN:497,497,_ZNSt11_Tuple_implILm1EJSt14default_deleteINSt7__cxx1118basic_stringstreamIcSt11char_traitsIcESaIcEEEEEE7_M_headERS8_
FN:497,497,_ZNSt11_Tuple_implILm2EJPiEE7_M_headERS1_
FN:497,497,_ZNSt11_Tuple_implILm2EJiEE7_M_headERS0_
FN:500,500,_ZNSt11_Tuple_implILm1EJN7testing7MatcherIP17spi_transaction_tEEEE7_M_headERKS5_
FN:500,500,_ZNSt11_Tuple_implILm1EJP17spi_transaction_tEE7_M_headERKS2_
FN:500,500,_ZNSt11_Tuple_implILm2EJN7testing7MatcherIPiEEEE7_M_headERKS4_
FN:500,500,_ZNSt11_Tuple_implILm2EJN7testing7MatcherIiEEEE7_M_headERKS3_
FN:500,500,_ZNSt11_Tuple_implILm2EJPiEE7_M_headERKS1_
FN:500,500,_ZNSt11_Tuple_implILm2EJiEE7_M_headERKS0_
FN:513,515,_ZNSt11_Tuple_implILm1EJP17spi_transaction_tEEC2IS1_EEOT_
FN:513,515,_ZNSt11_Tuple_implILm1EJPKN7testing8internal15AnythingMatcherEEEC2IS4_EEOT_
FN:513,515,_ZNSt11_Tuple_implILm1EJPKN7testing8internal9EqMatcherIiEEEEC2IS5_EEOT_
FN:513,515,_ZNSt11_Tuple_implILm2EJN7testing7MatcherIiEEEEC2IS2_EEOT_
FN:513,515,_ZNSt11_Tuple_implILm2EJPiEEC2IS0_EEOT_
FN:513,515,_ZNSt11_Tuple_implILm2EJiEEC2IiEEOT_
FN:517,517,_ZNSt11_Tuple_implILm2EJN7testing7MatcherIiEEEEC2ERKS3_
FN:527,530,_ZNSt11_Tuple_implILm1EJP17spi_transaction_tEEC2EOS2_
FN:527,530,_ZNSt11_Tuple_implILm2EJPiEEC2EOS1_
FN:527,530,_ZNSt11_Tuple_implILm2EJiEEC2EOS0_
FN:889,891,_ZNSt5tupleIJN7testing7MatcherIiEENS1_IPKiEES2_EEC2IJS2_S5_S2_ELb1ELb1EEEDpOT_
FN:889,891,_ZNSt5tupleIJiPKiPiEEC2IJiS1_S2_ELb1ELb1EEEDpOT_
FN:889,891,_ZNSt5tupleIJiPKiiEEC2IJiS1_iELb1ELb1EEEDpOT_
FN:901,901,_ZNSt5tupleIJN7testing7MatcherIiEENS1_IPKiEES2_EEC2ERKS6_
FN:903,903,_ZNSt5tupleIJiPKiPiEEC2EOS3_
FN:903,903,_ZNSt5tupleIJiPKiiEEC2EOS2_
FNDA:0,_ZNSt10_Head_baseILm1ESt14default_deleteINSt7__cxx1112basic_stringIcSt11char_traitsIcESaIcEEEELb1EE7_M_headERS8_
FNDA:54,_ZNSt10_Head_baseILm1ESt14default_deleteINSt7__cxx1118basic_stringstreamIcSt11char_traitsIcESaIcEEEELb1EE7_M_headERS8_
FNDA:0,_ZNSt5tupleIJPKN7testing8internal11MatcherBaseIPKiEEPKNS1_15AnythingMatcherEEEC2IS7_SA_Lb1EEEOT_OT0_
FNDA:0,_ZNSt5tupleIJPKN7testing8internal11MatcherBaseIRKS_IJiPKiiEEEEPKNS1_15AnythingMatcherEEEC2ISA_SD_Lb1EEEOT_OT0_
FNDA:0,_ZNSt5tupleIJPKN7testing8internal11MatcherBaseIiEEPKNS1_9EqMatcherIiEEEEC2IS5_S9_Lb1EEEOT_OT0_
FNDA:0,_ZNSt5tupleIJiP17spi_transaction_tEEC2IiS1_Lb1EEEOT_OT0_
FNDA:0,_ZNSt5tupleIJiP17spi_transaction_tEEC2EOS2_
FNDA:0,_ZSt12__get_helperILm0EPKN7testing8internal11MatcherBaseIPKiEEJPKNS1_15AnythingMatcherEEERT0_RSt11_Tuple_implIXT_EJSB_DpT1_EE
FNDA:0,_ZSt12__get_helperILm0EPKN7testing8internal11MatcherBaseIRKSt5tupleIJiPKiiEEEEJPKNS1_15AnythingMatcherEEERT0_RSt11_Tuple_implIXT_EJSF_DpT1_EE
FNDA:0,_ZSt12__get_helperILm0EPKN7testing8internal11MatcherBaseIiEEJPKNS1_9EqMatcherIiEEEERT0_RSt11_Tuple_implIXT_EJSA_DpT1_EE
FNDA:1,_ZSt12__get_helperILm0EPNSt7__cxx1112basic_stringIcSt11char_traitsIcESaIcEEEJSt14default_deleteIS5_EEERT0_RSt11_Tuple_implIXT_EJS9_DpT1_EE
FNDA:108,_ZSt12__get_helperILm0EPNSt7__cxx1118basic_stringstreamIcSt11char_traitsIcESaIcEEEJSt14default_deleteIS5_EEERT0_RSt11_Tuple_implIXT_EJS9_DpT1_EE
FNDA:0,_ZSt12__get_helperILm0EiJP17spi_transaction_tEERT0_RSt11_Tuple_implIXT_EJS2_DpT1_EE
FNDA:0,_ZSt12__get_helperILm0EiJPKiPiEERT0_RSt11_Tuple_implIXT_EJS3_DpT1_EE
FNDA:1,_ZSt12__get_helperILm0EiJPKiiEERT0_RSt11_Tuple_implIXT_EJS2_DpT1_EE
FNDA:0,_ZSt12__get_helperILm1EP17spi_transaction_tJEERT0_RSt11_Tuple_implIXT_EJS2_DpT1_EE
FNDA:0,_ZSt12__get_helperILm1EPKiJPiEERT0_RSt11_Tuple_implIXT_EJS3_DpT1_EE
FNDA:1,_ZSt12__get_helperILm1EPKiJiEERT0_RSt11_Tuple_implIXT_EJS2_DpT1_EE
FNDA:0,_ZSt12__get_helperILm1ESt14default_deleteINSt7__cxx1112basic_stringIcSt11char_traitsIcESaIcEEEEJEERT0_RSt11_Tuple_implIXT_EJS8_DpT1_EE
FNDA:54,_ZSt12__get_helperILm1ESt14default_deleteINSt7__cxx1118basic_stringstreamIcSt11char_traitsIcESaIcEEEEJEERT0_RSt11_Tuple_implIXT_EJS8_DpT1_EE
FNDA:0,_ZSt12__get_helperILm2EPiJEERT0_RSt11_Tuple_implIXT_EJS1_DpT1_EE
FNDA:1,_ZSt12__get_helperILm2EiJEERT0_RSt11_Tuple_implIXT_EJS0_DpT1_EE
FNDA:0,_ZSt12__get_helperILm0EN7testing7MatcherIiEEJNS1_IP17spi_transaction_tEEEERKT0_RKSt11_Tuple_implIXT_EJS6_DpT1_EE
FNDA:0,_ZSt12__get_helperILm0EN7testing7MatcherIiEEJNS1_IPKiEENS1_IPiEEEERKT0_RKSt11_Tuple_implIXT_EJS8_DpT1_EE
FNDA:1,_ZSt12__get_helperILm0EN7testing7MatcherIiEEJNS1_IPKiEES2_EERKT0_RKSt11_Tuple_implIXT_EJS6_DpT1_EE
FNDA:1,_ZSt12__get_helperILm0EPN7testing8internal11ThreadLocalIPNS0_8SequenceEE18ValueHolderFactoryEJSt14default_deleteIS6_EEERKT0_RKSt11_Tuple_implIXT_EJSA_DpT1_EE
FNDA:0,_ZSt12__get_helperILm0EPNSt7__cxx1112basic_stringIcSt11char_traitsIcESaIcEEEJSt14default_deleteIS5_EEERKT0_RKSt11_Tuple_implIXT_EJS9_DpT1_EE
FNDA:576,_ZSt12__get_helperILm0EPNSt7__cxx1118basic_stringstreamIcSt11char_traitsIcESaIcEEEJSt14default_deleteIS5_EEERKT0_RKSt11_Tuple_implIXT_EJS9_DpT1_EE
FNDA:0,_ZSt12__get_helperILm0EiJP17spi_transaction_tEERKT0_RKSt11_Tuple_implIXT_EJS2_DpT1_EE
FNDA:0,_ZSt12__get_helperILm0EiJPKiPiEERKT0_RKSt11_Tuple_implIXT_EJS3_DpT1_EE
FNDA:1,_ZSt12__get_helperILm0EiJPKiiEERKT0_RKSt11_Tuple_implIXT_EJS2_DpT1_EE
FNDA:0,_ZSt12__get_helperILm1EN7testing7MatcherIP17spi_transaction_tEEJEERKT0_RKSt11_Tuple_implIXT_EJS5_DpT1_EE
FNDA:0,_ZSt12__get_helperILm1EN7testing7MatcherIPKiEEJNS1_IPiEEEERKT0_RKSt11_Tuple_implIXT_EJS7_DpT1_EE
FNDA:1,_ZSt12__get_helperILm1EN7testing7MatcherIPKiEEJNS1_IiEEEERKT0_RKSt11_Tuple_implIXT_EJS6_DpT1_EE
FNDA:0,_ZSt12__get_helperILm1EP17spi_transaction_tJEERKT0_RKSt11_Tuple_implIXT_EJS2_DpT1_EE
FNDA:0,_ZSt12__get_helperILm1EPKiJPiEERKT0_RKSt11_Tuple_implIXT_EJS3_DpT1_EE
FNDA:1,_ZSt12__get_helperILm1EPKiJiEERKT0_RKSt11_Tuple_implIXT_EJS2_DpT1_EE
FNDA:0,_ZSt12__get_helperILm2EN7testing7MatcherIPiEEJEERKT0_RKSt11_Tuple_implIXT_EJS4_DpT1_EE
FNDA:1,_ZSt12__get_helperILm2EN7testing7MatcherIiEEJEERKT0_RKSt11_Tuple_implIXT_EJS3_DpT1_EE
FNDA:0,_ZSt12__get_helperILm2EPiJEERKT0_RKSt11_Tuple_implIXT_EJS1_DpT1_EE
FNDA:1,_ZSt12__get_helperILm2EiJEERKT0_RKSt11_Tuple_implIXT_EJS0_DpT1_EE
FNDA:1,_ZSt3getILm0EJPNSt7__cxx1112basic_stringIcSt11char_traitsIcESaIcEEESt14default_deleteIS5_EEERNSt13tuple_elementIXT_ESt5tupleIJDpT0_EEE4typeERSD_
FNDA:108,_ZSt3getILm0EJPNSt7__cxx1118basic_stringstreamIcSt11char_traitsIcESaIcEEESt14default_deleteIS5_EEERNSt13tuple_elementIXT_ESt5tupleIJDpT0_EEE4typeERSD_
FNDA:0,_ZSt3getILm1EJPNSt7__cxx1112basic_stringIcSt11char_traitsIcESaIcEEESt14default_deleteIS5_EEERNSt13tuple_elementIXT_ESt5tupleIJDpT0_EEE4typeERSD_
FNDA:54,_ZSt3getILm1EJPNSt7__cxx1118basic_stringstreamIcSt11char_traitsIcESaIcEEESt14default_deleteIS5_EEERNSt13tuple_elementIXT_ESt5tupleIJDpT0_EEE4typeERSD_
FNDA:0,_ZSt3getILm0EJN7testing7MatcherIiEENS1_IP17spi_transaction_tEEEERKNSt13tuple_elementIXT_ESt5tupleIJDpT0_EEE4typeERKSA_
FNDA:0,_ZSt3getILm0EJN7testing7MatcherIiEENS1_IPKiEENS1_IPiEEEERKNSt13tuple_elementIXT_ESt5tupleIJDpT0_EEE4typeERKSC_
FNDA:1,_ZSt3getILm0EJN7testing7MatcherIiEENS1_IPKiEES2_EERKNSt13tuple_elementIXT_ESt5tupleIJDpT0_EEE4typeERKSA_
FNDA:1,_ZSt3getILm0EJPN7testing8internal11ThreadLocalIPNS0_8SequenceEE18ValueHolderFactoryESt14default_deleteIS6_EEERKNSt13tuple_elementIXT_ESt5tupleIJDpT0_EEE4typeERKSE_
FNDA:0,_ZSt3getILm0EJPNSt7__cxx1112basic_stringIcSt11char_traitsIcESaIcEEESt14default_deleteIS5_EEERKNSt13tuple_elementIXT_ESt5tupleIJDpT0_EEE4typeERKSD_
FNDA:576,_ZSt3getILm0EJPNSt7__cxx1118basic_stringstreamIcSt11char_traitsIcESaIcEEESt14default_deleteIS5_EEERKNSt13tuple_elementIXT_ESt5tupleIJDpT0_EEE4typeERKSD_
FNDA:0,_ZSt3getILm0EJiP17spi_transaction_tEERKNSt13tuple_elementIXT_ESt5tupleIJDpT0_EEE4typeERKS6_
FNDA:0,_ZSt3getILm0EJiPKiPiEERKNSt13tuple_elementIXT_ESt5tupleIJDpT0_EEE4typeERKS7_
FNDA:1,_ZSt3getILm0EJiPKiiEERKNSt13tuple_elementIXT_ESt5tupleIJDpT0_EEE4typeERKS6_
FNDA:0,_ZSt3getILm1EJN7testing7MatcherIiEENS1_IP17spi_transaction_tEEEERKNSt13tuple_elementIXT_ESt5tupleIJDpT0_EEE4typeERKSA_
FNDA:0,_ZSt3getILm1EJN7testing7MatcherIiEENS1_IPKiEENS1_IPiEEEERKNSt13tuple_elementIXT_ESt5tupleIJDpT0_EEE4typeERKSC_
FNDA:1,_ZSt3getILm1EJN7testing7MatcherIiEENS1_IPKiEES2_EERKNSt13tuple_elementIXT_ESt5tupleIJDpT0_EEE4typeERKSA_
FNDA:0,_ZSt3getILm1EJiP17spi_transaction_tEERKNSt13tuple_elementIXT_ESt5tupleIJDpT0_EEE4typeERKS6_
FNDA:0,_ZSt3getILm1EJiPKiPiEERKNSt13tuple_elementIXT_ESt5tupleIJDpT0_EEE4typeERKS7_
FNDA:1,_ZSt3getILm1EJiPKiiEERKNSt13tuple_elementIXT_ESt5tupleIJDpT0_EEE4typeERKS6_
FNDA:0,_ZSt3getILm2EJN7testing7MatcherIiEENS1_IPKiEENS1_IPiEEEERKNSt13tuple_elementIXT_ESt5tupleIJDpT0_EEE4typeERKSC_
FNDA:1,_ZSt3getILm2EJN7testing7MatcherIiEENS1_IPKiEES2_EERKNSt13tuple_elementIXT_ESt5tupleIJDpT0_EEE4typeERKSA_
FNDA:0,_ZSt3getILm2EJiPKiPiEERKNSt13tuple_elementIXT_ESt5tupleIJDpT0_EEE4typeERKS7_
FNDA:1,_ZSt3getILm2EJiPKiiEERKNSt13tuple_elementIXT_ESt5tupleIJDpT0_EEE4typeERKS6_
FNDA:0,_ZSt3getILm0EJPKN7testing8internal11MatcherBaseIPKiEEPKNS1_15AnythingMatcherEEEONSt13tuple_elementIXT_ESt5tupleIJDpT0_EEE4typeEOSF_
FNDA:0,_ZSt3getILm0EJPKN7testing8internal11MatcherBaseIRKSt5tupleIJiPKiiEEEEPKNS1_15AnythingMatcherEEEONSt13tuple_elementIXT_ES3_IJDpT0_EEE4typeEOSI_
FNDA:0,_ZSt3getILm0EJPKN7testing8internal11MatcherBaseIiEEPKNS1_9EqMatcherIiEEEEONSt13tuple_elementIXT_ESt5tupleIJDpT0_EEE4typeEOSE_
FNDA:0,_ZSt3getILm0EJiP17spi_transaction_tEEONSt13tuple_elementIXT_ESt5tupleIJDpT0_EEE4typeEOS6_
FNDA:0,_ZSt3getILm0EJiPKiPiEEONSt13tuple_elementIXT_ESt5tupleIJDpT0_EEE4typeEOS7_
FNDA:1,_ZSt3getILm0EJiPKiiEEONSt13tuple_elementIXT_ESt5tupleIJDpT0_EEE4typeEOS6_
FNDA:0,_ZSt3getILm1EJiP17spi_transaction_tEEONSt13tuple_elementIXT_ESt5tupleIJDpT0_EEE4typeEOS6_
FNDA:0,_ZSt3getILm1EJiPKiPiEEONSt13tuple_elementIXT_ESt5tupleIJDpT0_EEE4typeEOS7_
FNDA:1,_ZSt3getILm1EJiPKiiEEONSt13tuple_elementIXT_ESt5tupleIJDpT0_EEE4typeEOS6_
FNDA:0,_ZSt3getILm2EJiPKiPiEEONSt13tuple_elementIXT_ESt5tupleIJDpT0_EEE4typeEOS7_
FNDA:1,_ZSt3getILm2EJiPKiiEEONSt13tuple_elementIXT_ESt5tupleIJDpT0_EEE4typeEOS6_
FNDA:2,_ZNSt10_Head_baseILm0EN7testing7MatcherIiEELb0EEC2ERKS3_
FNDA:2,_ZNSt10_Head_baseILm1EN7testing7MatcherIPKiEELb0EEC2ERKS5_
FNDA:2,_ZNSt10_Head_baseILm2EN7testing7MatcherIiEELb0EEC2ERKS3_
FNDA:1,_ZNSt10_Head_baseILm0EN7testing7MatcherIiEELb0EEC2IS2_EEOT_
FNDA:0,_ZNSt10_Head_baseILm0EPKN7testing8internal11MatcherBaseIPKiEELb0EEC2IS7_EEOT_
FNDA:0,_ZNSt10_Head_baseILm0EPKN7testing8internal11MatcherBaseIRKSt5tupleIJiPKiiEEEELb0EEC2ISB_EEOT_
FNDA:0,_ZNSt10_Head_baseILm0EPKN7testing8internal11MatcherBaseIiEELb0EEC2IS5_EEOT_
FNDA:1,_ZNSt10_Head_baseILm0EiLb0EEC2IiEEOT_
FNDA:1,_ZNSt10_Head_baseILm1EN7testing7MatcherIPKiEELb0EEC2IS4_EEOT_
FNDA:0,_ZNSt10_Head_baseILm1EP17spi_transaction_tLb0EEC2IS1_EEOT_
FNDA:0,_ZNSt10_Head_baseILm1EPKN7testing8internal15AnythingMatcherELb0EEC2IS4_EEOT_
FNDA:0,_ZNSt10_Head_baseILm1EPKN7testing8internal9EqMatcherIiEELb0EEC2IS5_EEOT_
FNDA:1,_ZNSt10_Head_baseILm1EPKiLb0EEC2IS1_EEOT_
FNDA:1,_ZNSt10_Head_baseILm2EN7testing7MatcherIiEELb0EEC2IS2_EEOT_
FNDA:0,_ZNSt10_Head_baseILm2EPiLb0EEC2IS0_EEOT_
FNDA:1,_ZNSt10_Head_baseILm2EiLb0EEC2IiEEOT_
FNDA:1,_ZSt10make_tupleIJN7testing7MatcherIiEENS1_IPKiEES2_EESt5tupleIJDpNSt25__strip_reference_wrapperINSt5decayIT_E4typeEE6__typeEEEDpOS9_
FNDA:0,_ZSt10make_tupleIJPKN7testing8internal11MatcherBaseIPKiEEPKNS1_15AnythingMatcherEEESt5tupleIJDpNSt25__strip_reference_wrapperINSt5decayIT_E4typeEE6__typeEEEDpOSE_
FNDA:0,_ZSt10make_tupleIJPKN7testing8internal11MatcherBaseIRKSt5tupleIJiPKiiEEEEPKNS1_15AnythingMatcherEEES3_IJDpNSt25__strip_reference_wrapperINSt5decayIT_E4typeEE6__typeEEEDpOSH_
FNDA:0,_ZSt10make_tupleIJPKN7testing8internal11MatcherBaseIiEEPKNS1_9EqMatcherIiEEEESt5tupleIJDpNSt25__strip_reference_wrapperINSt5decayIT_E4typeEE6__typeEEEDpOSD_
FNDA:0,_ZNSt10_Head_baseILm0EPKN7testing8internal11MatcherBaseIPKiEELb0EE7_M_headERS8_
FNDA:0,_ZNSt10_Head_baseILm0EPKN7testing8internal11MatcherBaseIRKSt5tupleIJiPKiiEEEELb0EE7_M_headERSC_
FNDA:0,_ZNSt10_Head_baseILm0EPKN7testing8internal11MatcherBaseIiEELb0EE7_M_headERS6_
FNDA:1,_ZNSt10_Head_baseILm0EPNSt7__cxx1112basic_stringIcSt11char_traitsIcESaIcEEELb0EE7_M_headERS7_
FNDA:108,_ZNSt10_Head_baseILm0EPNSt7__cxx1118basic_stringstreamIcSt11char_traitsIcESaIcEEELb0EE7_M_headERS7_
FNDA:1,_ZNSt10_Head_baseILm0EiLb0EE7_M_headERS0_
FNDA:0,_ZNSt10_Head_baseILm1EP17spi_transaction_tLb0EE7_M_headERS2_
FNDA:1,_ZNSt10_Head_baseILm1EPKiLb0EE7_M_headERS2_
FNDA:0,_ZNSt10_Head_baseILm2EPiLb0EE7_M_headERS1_
FNDA:1,_ZNSt10_Head_baseILm2EiLb0EE7_M_headERS0_
FNDA:1,_ZNSt10_Head_baseILm0EN7testing7MatcherIiEELb0EE7_M_headERKS3_
FNDA:1,_ZNSt10_Head_baseILm0EPN7testing8internal11ThreadLocalIPNS0_8SequenceEE18ValueHolderFactoryELb0EE7_M_headERKS8_
FNDA:0,_ZNSt10_Head_baseILm0EPNSt7__cxx1112basic_stringIcSt11char_traitsIcESaIcEEELb0EE7_M_headERKS7_
FNDA:576,_ZNSt10_Head_baseILm0EPNSt7__cxx1118basic_stringstreamIcSt11char_traitsIcESaIcEEELb0EE7_M_headERKS7_
FNDA:1,_ZNSt10_Head_baseILm0EiLb0EE7_M_headERKS0_
FNDA:0,_ZNSt10_Head_baseILm1EN7testing7MatcherIP17spi_transaction_tEELb0EE7_M_headERKS5_
FNDA:1,_ZNSt10_Head_baseILm1EN7testing7MatcherIPKiEELb0EE7_M_headERKS5_
FNDA:0,_ZNSt10_Head_baseILm1EP17spi_transaction_tLb0EE7_M_headERKS2_
FNDA:1,_ZNSt10_Head_baseILm1EPKiLb0EE7_M_headERKS2_
FNDA:0,_ZNSt10_Head_baseILm2EN7testing7MatcherIPiEELb0EE7_M_headERKS4_
FNDA:1,_ZNSt10_Head_baseILm2EN7testing7MatcherIiEELb0EE7_M_headERKS3_
FNDA:0,_ZNSt10_Head_baseILm2EPiLb0EE7_M_headERKS1_
FNDA:1,_ZNSt10_Head_baseILm2EiLb0EE7_M_headERKS0_
FNDA:0,_ZNSt11_Tuple_implILm0EJPKN7testing8internal11MatcherBaseIPKiEEPKNS1_15AnythingMatcherEEE7_M_headERSB_
FNDA:0,_ZNSt11_Tuple_implILm0EJPKN7testing8internal11MatcherBaseIRKSt5tupleIJiPKiiEEEEPKNS1_15AnythingMatcherEEE7_M_headERSF_
FNDA:0,_ZNSt11_Tuple_implILm0EJPKN7testing8internal11MatcherBaseIiEEPKNS1_9EqMatcherIiEEEE7_M_headERSA_
FNDA:1,_ZNSt11_Tuple_implILm0EJPNSt7__cxx1112basic_stringIcSt11char_traitsIcESaIcEEESt14default_deleteIS5_EEE7_M_headERS9_
FNDA:108,_ZNSt11_Tuple_implILm0EJPNSt7__cxx1118basic_stringstreamIcSt11char_traitsIcESaIcEEESt14default_deleteIS5_EEE7_M_headERS9_
FNDA:0,_ZNSt11_Tuple_implILm0EJiP17spi_transaction_tEE7_M_headERS2_
FNDA:0,_ZNSt11_Tuple_implILm0EJiPKiPiEE7_M_headERS3_
FNDA:1,_ZNSt11_Tuple_implILm0EJiPKiiEE7_M_headERS2_
FNDA:0,_ZNSt11_Tuple_implILm1EJPKiPiEE7_M_headERS3_
FNDA:1,_ZNSt11_Tuple_implILm1EJPKiiEE7_M_headERS2_
FNDA:0,_ZNSt11_Tuple_implILm0EJN7testing7MatcherIiEENS1_IP17spi_transaction_tEEEE7_M_headERKS6_
FNDA:0,_ZNSt11_Tuple_implILm0EJN7testing7MatcherIiEENS1_IPKiEENS1_IPiEEEE7_M_headERKS8_
FNDA:1,_ZNSt11_Tuple_implILm0EJN7testing7MatcherIiEENS1_IPKiEES2_EE7_M_headERKS6_
FNDA:1,_ZNSt11_Tuple_implILm0EJPN7testing8internal11ThreadLocalIPNS0_8SequenceEE18ValueHolderFactoryESt14default_deleteIS6_EEE7_M_headERKSA_
FNDA:0,_ZNSt11_Tuple_implILm0EJPNSt7__cxx1112basic_stringIcSt11char_traitsIcESaIcEEESt14default_deleteIS5_EEE7_M_headERKS9_
FNDA:576,_ZNSt11_Tuple_implILm0EJPNSt7__cxx1118basic_stringstreamIcSt11char_traitsIcESaIcEEESt14default_deleteIS5_EEE7_M_headERKS9_
FNDA:0,_ZNSt11_Tuple_implILm0EJiP17spi_transaction_tEE7_M_headERKS2_
FNDA:0,_ZNSt11_Tuple_implILm0EJiPKiPiEE7_M_headERKS3_
FNDA:1,_ZNSt11_Tuple_implILm0EJiPKiiEE7_M_headERKS2_
FNDA:0,_ZNSt11_Tuple_implILm1EJN7testing7MatcherIPKiEENS1_IPiEEEE7_M_headERKS7_
FNDA:1,_ZNSt11_Tuple_implILm1EJN7testing7MatcherIPKiEENS1_IiEEEE7_M_headERKS6_
FNDA:0,_ZNSt11_Tuple_implILm1EJPKiPiEE7_M_headERKS3_
FNDA:1,_ZNSt11_Tuple_implILm1EJPKiiEE7_M_headERKS2_
FNDA:1,_ZNSt11_Tuple_implILm0EJN7testing7MatcherIiEENS1_IPKiEES2_EEC2IS2_JS5_S2_EvEEOT_DpOT0_
FNDA:0,_ZNSt11_Tuple_implILm0EJPKN7testing8internal11MatcherBaseIPKiEEPKNS1_15AnythingMatcherEEEC2IS7_JSA_EvEEOT_DpOT0_
FNDA:0,_ZNSt11_Tuple_implILm0EJPKN7testing8internal11MatcherBaseIRKSt5tupleIJiPKiiEEEEPKNS1_15AnythingMatcherEEEC2ISB_JSE_EvEEOT_DpOT0_
FNDA:0,_ZNSt11_Tuple_implILm0EJPKN7testing8internal11MatcherBaseIiEEPKNS1_9EqMatcherIiEEEEC2IS5_JS9_EvEEOT_DpOT0_
FNDA:0,_ZNSt11_Tuple_implILm0EJiP17spi_transaction_tEEC2IiJS1_EvEEOT_DpOT0_
FNDA:0,_ZNSt11_Tuple_implILm0EJiPKiPiEEC2IiJS1_S2_EvEEOT_DpOT0_
FNDA:1,_ZNSt11_Tuple_implILm0EJiPKiiEEC2IiJS1_iEvEEOT_DpOT0_
FNDA:1,_ZNSt11_Tuple_implILm1EJN7testing7MatcherIPKiEENS1_IiEEEEC2IS4_JS5_EvEEOT_DpOT0_
FNDA:0,_ZNSt11_Tuple_implILm1EJPKiPiEEC2IS1_JS2_EvEEOT_DpOT0_
FNDA:1,_ZNSt11_Tuple_implILm1EJPKiiEEC2IS1_JiEvEEOT_DpOT0_
FNDA:2,_ZNSt11_Tuple_implILm0EJN7testing7MatcherIiEENS1_IPKiEES2_EEC2ERKS6_
FNDA:2,_ZNSt11_Tuple_implILm1EJN7testing7MatcherIPKiEENS1_IiEEEEC2ERKS6_
FNDA:0,_ZNSt11_Tuple_implILm0EJiP17spi_transaction_tEEC2EOS2_
FNDA:0,_ZNSt11_Tuple_implILm0EJiPKiPiEEC2EOS3_
FNDA:1,_ZNSt11_Tuple_implILm0EJiPKiiEEC2EOS2_
FNDA:0,_ZNSt11_Tuple_implILm1EJPKiPiEEC2EOS3_
FNDA:1,_ZNSt11_Tuple_implILm1EJPKiiEEC2EOS2_
FNDA:0,_ZNSt11_Tuple_implILm1EJP17spi_transaction_tEE7_M_headERS2_
FNDA:0,_ZNSt11_Tuple_implILm1EJSt14default_deleteINSt7__cxx1112basic_stringIcSt11char_traitsIcESaIcEEEEEE7_M_headERS8_
FNDA:54,_ZNSt11_Tuple_implILm1EJSt14default_deleteINSt7__cxx1118basic_stringstreamIcSt11char_traitsIcESaIcEEEEEE7_M_headERS8_
FNDA:0,_ZNSt11_Tuple_implILm2EJPiEE7_M_headERS1_
FNDA:1,_ZNSt11_Tuple_implILm2EJiEE7_M_headERS0_
FNDA:0,_ZNSt11_Tuple_implILm1EJN7testing7MatcherIP17spi_transaction_tEEEE7_M_headERKS5_
FNDA:0,_ZNSt11_Tuple_implILm1EJP17spi_transaction_tEE7_M_headERKS2_
FNDA:0,_ZNSt11_Tuple_implILm2EJN7testing7MatcherIPiEEEE7_M_headERKS4_
FNDA:1,_ZNSt11_Tuple_implILm2EJN7testing7MatcherIiEEEE7_M_headERKS3_
FNDA:0,_ZNSt11_Tuple_implILm2EJPiEE7_M_headERKS1_
FNDA:1,_ZNSt11_Tuple_implILm2EJiEE7_M_headERKS0_
FNDA:0,_ZNSt11_Tuple_implILm1EJP17spi_transaction_tEEC2IS1_EEOT_
FNDA:0,_ZNSt11_Tuple_implILm1EJPKN7testing8internal15AnythingMatcherEEEC2IS4_EEOT_
FNDA:0,_ZNSt11_Tuple_implILm1EJPKN7testing8internal9EqMatcherIiEEEEC2IS5_EEOT_
FNDA:1,_ZNSt11_Tuple_implILm2EJN7testing7MatcherIiEEEEC2IS2_EEOT_
FNDA:0,_ZNSt11_Tuple_implILm2EJPiEEC2IS0_EEOT_
FNDA:1,_ZNSt11_Tuple_implILm2EJiEEC2IiEEOT_
FNDA:2,_ZNSt11_Tuple_implILm2EJN7testing7MatcherIiEEEEC2ERKS3_
FNDA:0,_ZNSt11_Tuple_implILm1EJP17spi_transaction_tEEC2EOS2_
FNDA:0,_ZNSt11_Tuple_implILm2EJPiEEC2EOS1_
FNDA:1,_ZNSt11_Tuple_implILm2EJiEEC2EOS0_
FNDA:1,_ZNSt5tupleIJN7testing7MatcherIiEENS1_IPKiEES2_EEC2IJS2_S5_S2_ELb1ELb1EEEDpOT_
FNDA:0,_ZNSt5tupleIJiPKiPiEEC2IJiS1_S2_ELb1ELb1EEEDpOT_
FNDA:1,_ZNSt5tupleIJiPKiiEEC2IJiS1_iELb1ELb1EEEDpOT_
FNDA:2,_ZNSt5tupleIJN7testing7MatcherIiEENS1_IPKiEES2_EEC2ERKS6_
FNDA:0,_ZNSt5tupleIJiPKiPiEEC2EOS3_
FNDA:1,_ZNSt5tupleIJiPKiiEEC2EOS2_
FNF:185
FNH:82
DA:125,54
DA:196,6
DA:200,6
DA:201,6
DA:234,112
DA:237,583
DA:269,111
DA:272,581
DA:291,4
DA:293,4
DA:294,4
DA:296,4
DA:302,2
DA:497,55
DA:500,2
DA:513,2
DA:514,2
DA:515,2
DA:517,2
DA:527,1
DA:529,1
DA:530,1
DA:889,2
DA:891,2
DA:901,2
DA:903,1
DA:1345,0
DA:1347,0
DA:1358,0
DA:1787,166
DA:1788,166
DA:1792,583
DA:1793,583
DA:1803,163
DA:1804,163
DA:1809,583
DA:1810,583
DA:1815,3
DA:1818,3
DA:2001,1
DA:2005,1
LF:41
LH:38
end_of_record
TN:
SF:/usr/include/c++/13.2.1/type_traits
FN:67,67,_ZNKSt17integral_constantIbLb1EEcvbEv
FNDA:1,_ZNKSt17integral_constantIbLb1EEcvbEv
FNF:1
FNH:1
DA:67,1
LF:1
LH:1
end_of_record
TN:
SF:/usr/include/c++/13.2.1/typeinfo
FN:103,104,_ZNKSt9type_info4nameEv
FN:193,210,_ZNKSt9type_infoeqERKS_
FNDA:0,_ZNKSt9type_info4nameEv
FNDA:0,_ZNKSt9type_infoeqERKS_
FNF:2
FNH:0
DA:103,0
DA:104,0
DA:193,0
DA:195,0
DA:196,0
DA:198,0
DA:199,0
DA:206,0
LF:8
LH:0
end_of_record
TN:
SF:/usr/include/c++/13.2.1/x86_64-pc-linux-gnu/bits/c++config.h
FN:540,551,_ZSt23__is_constant_evaluatedv
FNDA:535,_ZSt23__is_constant_evaluatedv
FNF:1
FNH:1
DA:540,535
DA:547,535
LF:2
LH:2
end_of_record
